TN:
SF:/home/carrotcake/documents/projects/personal/Plazza/src/usage.cpp
FN:17,19,_Z10isPositivei
FN:21,27,_Z14checkArgumentsfii
FN:29,51,_Z13errorHandlingiPPKc
FN:5,15,_Z7isFloatRKNSt7__cxx1112basic_stringIcSt11char_traitsIcESaIcEEE
FNDA:5,_Z10isPositivei
FNDA:13,_Z14checkArgumentsfii
FNDA:17,_Z13errorHandlingiPPKc
FNDA:19,_Z7isFloatRKNSt7__cxx1112basic_stringIcSt11char_traitsIcESaIcEEE
FNF:4
FNH:4
DA:5,19
DA:7,19
DA:8,17
DA:10,2
DA:13,2
DA:14,2
DA:15,2
DA:17,5
DA:18,5
DA:21,13
DA:22,13
DA:23,6
DA:24,6
DA:26,7
DA:29,17
DA:31,43
DA:32,2
DA:33,2
DA:35,15
DA:36,5
DA:37,5
DA:40,48
DA:41,2
DA:42,2
DA:44,42
DA:45,0
DA:46,5
DA:47,5
DA:48,5
DA:49,5
DA:50,3
LF:31
LH:30
end_of_record
TN:
SF:/usr/include/c++/13/bits/alloc_traits.h
FNF:0
FNH:0
DA:482,54
DA:517,52
DA:538,46
DA:542,46
DA:562,34
DA:574,32
DA:588,4
DA:948,16
DA:949,16
LF:9
LH:9
end_of_record
TN:
SF:/usr/include/c++/13/bits/allocator.h
FNF:0
FNH:0
DA:163,93
DA:168,20
DA:184,97
LF:3
LH:3
end_of_record
TN:
SF:/usr/include/c++/13/bits/basic_string.h
FN:3528,3541,_ZSt12__str_concatINSt7__cxx1112basic_stringIcSt11char_traitsIcESaIcEEEET_PKNS6_10value_typeENS6_9size_typeES9_SA_RKNS6_14allocator_typeE
FN:3607,3615,_ZStplIcSt11char_traitsIcESaIcEENSt7__cxx1112basic_stringIT_T0_T1_EERKS8_PKS5_
FN:3727,3732,_ZSteqIcSt11char_traitsIcESaIcEEbRKNSt7__cxx1112basic_stringIT_T0_T1_EEPKS5_
FN:3829,3832,_ZStltIcSt11char_traitsIcESaIcEEbRKNSt7__cxx1112basic_stringIT_T0_T1_EESA_
FN:4120,4122,_ZNSt7__cxx114stoiERKNS_12basic_stringIcSt11char_traitsIcESaIcEEEPmi
FN:4146,4147,_ZNSt7__cxx114stofERKNS_12basic_stringIcSt11char_traitsIcESaIcEEEPm
FN:641,650,_ZNSt7__cxx1112basic_stringIcSt11char_traitsIcESaIcEEC2IS3_EEPKcRKS3_
FNDA:4,_ZSt12__str_concatINSt7__cxx1112basic_stringIcSt11char_traitsIcESaIcEEEET_PKNS6_10value_typeENS6_9size_typeES9_SA_RKNS6_14allocator_typeE
FNDA:4,_ZStplIcSt11char_traitsIcESaIcEENSt7__cxx1112basic_stringIT_T0_T1_EERKS8_PKS5_
FNDA:23,_ZSteqIcSt11char_traitsIcESaIcEEbRKNSt7__cxx1112basic_stringIT_T0_T1_EEPKS5_
FNDA:228,_ZStltIcSt11char_traitsIcESaIcEEbRKNSt7__cxx1112basic_stringIT_T0_T1_EESA_
FNDA:15,_ZNSt7__cxx114stoiERKNS_12basic_stringIcSt11char_traitsIcESaIcEEEPmi
FNDA:6,_ZNSt7__cxx114stofERKNS_12basic_stringIcSt11char_traitsIcESaIcEEEPm
FNDA:89,_ZNSt7__cxx1112basic_stringIcSt11char_traitsIcESaIcEEC2IS3_EEPKcRKS3_
FNF:7
FNH:7
DA:355,59
DA:641,89
DA:642,89
DA:645,89
DA:646,0
DA:648,89
DA:649,89
DA:650,89
DA:3528,4
DA:3536,4
DA:3537,4
DA:3538,4
DA:3539,4
DA:3540,4
DA:3541,0
DA:3607,4
DA:3614,8
DA:3727,23
DA:3730,23
DA:3731,23
DA:3829,228
DA:3832,228
DA:4120,15
DA:4121,15
DA:4122,13
DA:4146,6
DA:4147,6
LF:27
LH:25
end_of_record
TN:
SF:/usr/include/c++/13/bits/basic_string.tcc
FN:221,252,_ZNSt7__cxx1112basic_stringIcSt11char_traitsIcESaIcEE12_M_constructIPKcEEvT_S8_St20forward_iterator_tag
FN:221,252,_ZNSt7__cxx1112basic_stringIcSt11char_traitsIcESaIcEE12_M_constructIPcEEvT_S7_St20forward_iterator_tag
FN:239,239,_ZZNSt7__cxx1112basic_stringIcSt11char_traitsIcESaIcEE12_M_constructIPKcEEvT_S8_St20forward_iterator_tagEN6_GuardC2EPS4_
FN:239,239,_ZZNSt7__cxx1112basic_stringIcSt11char_traitsIcESaIcEE12_M_constructIPcEEvT_S7_St20forward_iterator_tagEN6_GuardC2EPS4_
FN:242,242,_ZZNSt7__cxx1112basic_stringIcSt11char_traitsIcESaIcEE12_M_constructIPKcEEvT_S8_St20forward_iterator_tagEN6_GuardD2Ev
FN:242,242,_ZZNSt7__cxx1112basic_stringIcSt11char_traitsIcESaIcEE12_M_constructIPcEEvT_S7_St20forward_iterator_tagEN6_GuardD2Ev
FNDA:89,_ZNSt7__cxx1112basic_stringIcSt11char_traitsIcESaIcEE12_M_constructIPKcEEvT_S8_St20forward_iterator_tag
FNDA:0,_ZNSt7__cxx1112basic_stringIcSt11char_traitsIcESaIcEE12_M_constructIPcEEvT_S7_St20forward_iterator_tag
FNDA:89,_ZZNSt7__cxx1112basic_stringIcSt11char_traitsIcESaIcEE12_M_constructIPKcEEvT_S8_St20forward_iterator_tagEN6_GuardC2EPS4_
FNDA:0,_ZZNSt7__cxx1112basic_stringIcSt11char_traitsIcESaIcEE12_M_constructIPcEEvT_S7_St20forward_iterator_tagEN6_GuardC2EPS4_
FNDA:89,_ZZNSt7__cxx1112basic_stringIcSt11char_traitsIcESaIcEE12_M_constructIPKcEEvT_S8_St20forward_iterator_tagEN6_GuardD2Ev
FNDA:0,_ZZNSt7__cxx1112basic_stringIcSt11char_traitsIcESaIcEE12_M_constructIPcEEvT_S7_St20forward_iterator_tagEN6_GuardD2Ev
FNF:6
FNH:3
DA:221,89
DA:225,89
DA:227,89
DA:229,30
DA:230,30
DA:239,89
DA:242,89
DA:245,89
DA:247,89
DA:249,89
DA:251,89
DA:252,89
LF:12
LH:12
end_of_record
TN:
SF:/usr/include/c++/13/bits/char_traits.h
FN:136,137,_ZN9__gnu_cxx11char_traitsIcE2eqERKcS3_
FN:199,206,_ZN9__gnu_cxx11char_traitsIcE6lengthEPKc
FN:366,371,_ZNSt11char_traitsIcE2ltERKcS2_
FN:374,390,_ZNSt11char_traitsIcE7compareEPKcS2_m
FN:393,400,_ZNSt11char_traitsIcE6lengthEPKc
FN:427,436,_ZNSt11char_traitsIcE4copyEPcPKcm
FNDA:0,_ZN9__gnu_cxx11char_traitsIcE2eqERKcS3_
FNDA:0,_ZN9__gnu_cxx11char_traitsIcE6lengthEPKc
FNDA:0,_ZNSt11char_traitsIcE2ltERKcS2_
FNDA:7,_ZNSt11char_traitsIcE7compareEPKcS2_m
FNDA:116,_ZNSt11char_traitsIcE6lengthEPKc
FNDA:0,_ZNSt11char_traitsIcE4copyEPcPKcm
FNF:6
FNH:2
DA:136,0
DA:137,0
DA:199,0
DA:202,0
DA:203,0
DA:204,0
DA:205,0
DA:366,0
DA:369,0
DA:370,0
DA:374,7
DA:376,7
DA:377,0
DA:379,7
DA:381,0
DA:382,0
DA:383,0
DA:384,0
DA:385,0
DA:386,0
DA:389,7
DA:393,116
DA:396,116
DA:397,0
DA:399,116
DA:427,0
DA:429,0
DA:430,0
DA:435,0
LF:29
LH:7
end_of_record
TN:
SF:/usr/include/c++/13/bits/cpp_type_traits.h
FN:607,608,_ZSt12__miter_baseIN9__gnu_cxx17__normal_iteratorIPK13ArgumentsCaseSt6vectorIS2_SaIS2_EEEEET_S9_
FN:607,608,_ZSt12__miter_baseIN9__gnu_cxx17__normal_iteratorIPK9ErrorCaseSt6vectorIS2_SaIS2_EEEEET_S9_
FN:607,608,_ZSt12__miter_baseIPK13ArgumentsCaseET_S3_
FN:607,608,_ZSt12__miter_baseIPK9ErrorCaseET_S3_
FNDA:4,_ZSt12__miter_baseIN9__gnu_cxx17__normal_iteratorIPK13ArgumentsCaseSt6vectorIS2_SaIS2_EEEEET_S9_
FNDA:4,_ZSt12__miter_baseIN9__gnu_cxx17__normal_iteratorIPK9ErrorCaseSt6vectorIS2_SaIS2_EEEEET_S9_
FNDA:4,_ZSt12__miter_baseIPK13ArgumentsCaseET_S3_
FNDA:4,_ZSt12__miter_baseIPK9ErrorCaseET_S3_
FNF:4
FNH:4
DA:607,16
DA:608,16
LF:2
LH:2
end_of_record
TN:
SF:/usr/include/c++/13/bits/ios_base.h
FN:103,104,_ZStaNRSt13_Ios_FmtflagsS_
FN:721,722,_ZNSt8ios_base6unsetfESt13_Ios_Fmtflags
FN:83,84,_ZStanSt13_Ios_FmtflagsS_
FN:95,96,_ZStcoSt13_Ios_Fmtflags
FN:993,997,_ZSt8noskipwsRSt8ios_base
FNDA:2,_ZStaNRSt13_Ios_FmtflagsS_
FNDA:2,_ZNSt8ios_base6unsetfESt13_Ios_Fmtflags
FNDA:2,_ZStanSt13_Ios_FmtflagsS_
FNDA:2,_ZStcoSt13_Ios_Fmtflags
FNDA:2,_ZSt8noskipwsRSt8ios_base
FNF:5
FNH:5
DA:83,2
DA:84,2
DA:95,2
DA:96,2
DA:103,2
DA:104,2
DA:721,2
DA:722,2
DA:993,2
DA:995,2
DA:996,2
LF:11
LH:11
end_of_record
TN:
SF:/usr/include/c++/13/bits/move.h
FN:138,139,_ZSt9addressofIK13ArgumentsCaseEPT_RS2_
FN:138,139,_ZSt9addressofIK9ErrorCaseEPT_RS2_
FN:51,52,_ZSt11__addressofIK13ArgumentsCaseEPT_RS2_
FN:51,52,_ZSt11__addressofIK9ErrorCaseEPT_RS2_
FN:51,52,_ZSt11__addressofIN7testing8internal26ParameterizedTestSuiteInfoI21ErrorHandlingHelpTestE17InstantiationInfoEEPT_RS6_
FN:51,52,_ZSt11__addressofIN7testing8internal26ParameterizedTestSuiteInfoI26ErrorHandlingTestArgumentsE17InstantiationInfoEEPT_RS6_
FN:51,52,_ZSt11__addressofISt10shared_ptrIN7testing8internal26ParameterizedTestSuiteInfoI21ErrorHandlingHelpTestE8TestInfoEEEPT_RS8_
FN:51,52,_ZSt11__addressofISt10shared_ptrIN7testing8internal26ParameterizedTestSuiteInfoI26ErrorHandlingTestArgumentsE8TestInfoEEEPT_RS8_
FN:70,71,_ZSt7forwardI13ArgumentsCaseEOT_RNSt16remove_referenceIS1_E4typeE
FN:70,71,_ZSt7forwardI9ErrorCaseEOT_RNSt16remove_referenceIS1_E4typeE
FN:70,71,_ZSt7forwardIN7testing8internal10ValueArrayIJ13ArgumentsCaseS3_S3_S3_S3_S3_S3_S3_S3_S3_EEEEOT_RNSt16remove_referenceIS5_E4typeE
FN:70,71,_ZSt7forwardIN7testing8internal10ValueArrayIJ9ErrorCaseS3_S3_S3_S3_S3_S3_EEEEOT_RNSt16remove_referenceIS5_E4typeE
FN:70,71,_ZSt7forwardIN7testing8internal26ParameterizedTestSuiteInfoI21ErrorHandlingHelpTestE17InstantiationInfoEEOT_RNSt16remove_referenceIS6_E4typeE
FN:70,71,_ZSt7forwardIN7testing8internal26ParameterizedTestSuiteInfoI26ErrorHandlingTestArgumentsE17InstantiationInfoEEOT_RNSt16remove_referenceIS6_E4typeE
FN:70,71,_ZSt7forwardIPN7testing8internal30ParameterizedTestSuiteInfoBaseEEOT_RNSt16remove_referenceIS4_E4typeE
FN:70,71,_ZSt7forwardIRKNSt7__cxx1112basic_stringIcSt11char_traitsIcESaIcEEEEOT_RNSt16remove_referenceIS8_E4typeE
FN:70,71,_ZSt7forwardIRPSt13_Rb_tree_nodeINSt7__cxx1112basic_stringIcSt11char_traitsIcESaIcEEEEEOT_RNSt16remove_referenceISA_E4typeE
FN:70,71,_ZSt7forwardIRPSt18_Rb_tree_node_baseEOT_RNSt16remove_referenceIS3_E4typeE
FN:70,71,_ZSt7forwardIRSt17_Rb_tree_iteratorINSt7__cxx1112basic_stringIcSt11char_traitsIcESaIcEEEEEOT_RNSt16remove_referenceIS9_E4typeE
FN:70,71,_ZSt7forwardIRbEOT_RNSt16remove_referenceIS1_E4typeE
FN:70,71,_ZSt7forwardISt10shared_ptrIN7testing8internal26ParameterizedTestSuiteInfoI21ErrorHandlingHelpTestE8TestInfoEEEOT_RNSt16remove_referenceIS8_E4typeE
FN:70,71,_ZSt7forwardISt10shared_ptrIN7testing8internal26ParameterizedTestSuiteInfoI26ErrorHandlingTestArgumentsE8TestInfoEEEOT_RNSt16remove_referenceIS8_E4typeE
FN:70,71,_ZSt7forwardISt17_Rb_tree_iteratorINSt7__cxx1112basic_stringIcSt11char_traitsIcESaIcEEEEEOT_RNSt16remove_referenceIS8_E4typeE
FN:70,71,_ZSt7forwardIbEOT_RNSt16remove_referenceIS0_E4typeE
FN:97,98,_ZSt4moveIR13ArgumentsCaseEONSt16remove_referenceIT_E4typeEOS3_
FN:97,98,_ZSt4moveIR9ErrorCaseEONSt16remove_referenceIT_E4typeEOS3_
FN:97,98,_ZSt4moveIRN7testing8internal26ParameterizedTestSuiteInfoI21ErrorHandlingHelpTestE17InstantiationInfoEEONSt16remove_referenceIT_E4typeEOS8_
FN:97,98,_ZSt4moveIRN7testing8internal26ParameterizedTestSuiteInfoI26ErrorHandlingTestArgumentsE17InstantiationInfoEEONSt16remove_referenceIT_E4typeEOS8_
FN:97,98,_ZSt4moveIRPK13ArgumentsCaseEONSt16remove_referenceIT_E4typeEOS5_
FN:97,98,_ZSt4moveIRPK9ErrorCaseEONSt16remove_referenceIT_E4typeEOS5_
FN:97,98,_ZSt4moveIRPN7testing8internal19TestMetaFactoryBaseI13ArgumentsCaseEEEONSt16remove_referenceIT_E4typeEOS8_
FN:97,98,_ZSt4moveIRPN7testing8internal19TestMetaFactoryBaseI9ErrorCaseEEEONSt16remove_referenceIT_E4typeEOS8_
FN:97,98,_ZSt4moveIRPN7testing8internal22ParamIteratorInterfaceI13ArgumentsCaseEEEONSt16remove_referenceIT_E4typeEOS8_
FN:97,98,_ZSt4moveIRPN7testing8internal22ParamIteratorInterfaceI9ErrorCaseEEEONSt16remove_referenceIT_E4typeEOS8_
FN:97,98,_ZSt4moveIRPN7testing8internal30ParameterizedTestSuiteInfoBaseEEONSt16remove_referenceIT_E4typeEOS6_
FN:97,98,_ZSt4moveIRPNSt7__cxx1112basic_stringIcSt11char_traitsIcESaIcEEEEONSt16remove_referenceIT_E4typeEOS9_
FN:97,98,_ZSt4moveIRPNSt7__cxx1118basic_stringstreamIcSt11char_traitsIcESaIcEEEEONSt16remove_referenceIT_E4typeEOS9_
FN:97,98,_ZSt4moveIRSaIcEEONSt16remove_referenceIT_E4typeEOS3_
FN:97,98,_ZSt4moveIRSt10shared_ptrIN7testing8internal26ParameterizedTestSuiteInfoI21ErrorHandlingHelpTestE8TestInfoEEEONSt16remove_referenceIT_E4typeEOSA_
FN:97,98,_ZSt4moveIRSt10shared_ptrIN7testing8internal26ParameterizedTestSuiteInfoI26ErrorHandlingTestArgumentsE8TestInfoEEEONSt16remove_referenceIT_E4typeEOSA_
FNDA:20,_ZSt9addressofIK13ArgumentsCaseEPT_RS2_
FNDA:14,_ZSt9addressofIK9ErrorCaseEPT_RS2_
FNDA:20,_ZSt11__addressofIK13ArgumentsCaseEPT_RS2_
FNDA:14,_ZSt11__addressofIK9ErrorCaseEPT_RS2_
FNDA:2,_ZSt11__addressofIN7testing8internal26ParameterizedTestSuiteInfoI21ErrorHandlingHelpTestE17InstantiationInfoEEPT_RS6_
FNDA:2,_ZSt11__addressofIN7testing8internal26ParameterizedTestSuiteInfoI26ErrorHandlingTestArgumentsE17InstantiationInfoEEPT_RS6_
FNDA:2,_ZSt11__addressofISt10shared_ptrIN7testing8internal26ParameterizedTestSuiteInfoI21ErrorHandlingHelpTestE8TestInfoEEEPT_RS8_
FNDA:2,_ZSt11__addressofISt10shared_ptrIN7testing8internal26ParameterizedTestSuiteInfoI26ErrorHandlingTestArgumentsE8TestInfoEEEPT_RS8_
FNDA:60,_ZSt7forwardI13ArgumentsCaseEOT_RNSt16remove_referenceIS1_E4typeE
FNDA:42,_ZSt7forwardI9ErrorCaseEOT_RNSt16remove_referenceIS1_E4typeE
FNDA:0,_ZSt7forwardIN7testing8internal10ValueArrayIJ13ArgumentsCaseS3_S3_S3_S3_S3_S3_S3_S3_S3_EEEEOT_RNSt16remove_referenceIS5_E4typeE
FNDA:0,_ZSt7forwardIN7testing8internal10ValueArrayIJ9ErrorCaseS3_S3_S3_S3_S3_S3_EEEEOT_RNSt16remove_referenceIS5_E4typeE
FNDA:8,_ZSt7forwardIN7testing8internal26ParameterizedTestSuiteInfoI21ErrorHandlingHelpTestE17InstantiationInfoEEOT_RNSt16remove_referenceIS6_E4typeE
FNDA:8,_ZSt7forwardIN7testing8internal26ParameterizedTestSuiteInfoI26ErrorHandlingTestArgumentsE17InstantiationInfoEEOT_RNSt16remove_referenceIS6_E4typeE
FNDA:16,_ZSt7forwardIPN7testing8internal30ParameterizedTestSuiteInfoBaseEEOT_RNSt16remove_referenceIS4_E4typeE
FNDA:238,_ZSt7forwardIRKNSt7__cxx1112basic_stringIcSt11char_traitsIcESaIcEEEEOT_RNSt16remove_referenceIS8_E4typeE
FNDA:34,_ZSt7forwardIRPSt13_Rb_tree_nodeINSt7__cxx1112basic_stringIcSt11char_traitsIcESaIcEEEEEOT_RNSt16remove_referenceISA_E4typeE
FNDA:34,_ZSt7forwardIRPSt18_Rb_tree_node_baseEOT_RNSt16remove_referenceIS3_E4typeE
FNDA:34,_ZSt7forwardIRSt17_Rb_tree_iteratorINSt7__cxx1112basic_stringIcSt11char_traitsIcESaIcEEEEEOT_RNSt16remove_referenceIS9_E4typeE
FNDA:34,_ZSt7forwardIRbEOT_RNSt16remove_referenceIS1_E4typeE
FNDA:8,_ZSt7forwardISt10shared_ptrIN7testing8internal26ParameterizedTestSuiteInfoI21ErrorHandlingHelpTestE8TestInfoEEEOT_RNSt16remove_referenceIS8_E4typeE
FNDA:8,_ZSt7forwardISt10shared_ptrIN7testing8internal26ParameterizedTestSuiteInfoI26ErrorHandlingTestArgumentsE8TestInfoEEEOT_RNSt16remove_referenceIS8_E4typeE
FNDA:34,_ZSt7forwardISt17_Rb_tree_iteratorINSt7__cxx1112basic_stringIcSt11char_traitsIcESaIcEEEEEOT_RNSt16remove_referenceIS8_E4typeE
FNDA:34,_ZSt7forwardIbEOT_RNSt16remove_referenceIS0_E4typeE
FNDA:40,_ZSt4moveIR13ArgumentsCaseEONSt16remove_referenceIT_E4typeEOS3_
FNDA:28,_ZSt4moveIR9ErrorCaseEONSt16remove_referenceIT_E4typeEOS3_
FNDA:2,_ZSt4moveIRN7testing8internal26ParameterizedTestSuiteInfoI21ErrorHandlingHelpTestE17InstantiationInfoEEONSt16remove_referenceIT_E4typeEOS8_
FNDA:2,_ZSt4moveIRN7testing8internal26ParameterizedTestSuiteInfoI26ErrorHandlingTestArgumentsE17InstantiationInfoEEONSt16remove_referenceIT_E4typeEOS8_
FNDA:40,_ZSt4moveIRPK13ArgumentsCaseEONSt16remove_referenceIT_E4typeEOS5_
FNDA:28,_ZSt4moveIRPK9ErrorCaseEONSt16remove_referenceIT_E4typeEOS5_
FNDA:2,_ZSt4moveIRPN7testing8internal19TestMetaFactoryBaseI13ArgumentsCaseEEEONSt16remove_referenceIT_E4typeEOS8_
FNDA:2,_ZSt4moveIRPN7testing8internal19TestMetaFactoryBaseI9ErrorCaseEEEONSt16remove_referenceIT_E4typeEOS8_
FNDA:24,_ZSt4moveIRPN7testing8internal22ParamIteratorInterfaceI13ArgumentsCaseEEEONSt16remove_referenceIT_E4typeEOS8_
FNDA:18,_ZSt4moveIRPN7testing8internal22ParamIteratorInterfaceI9ErrorCaseEEEONSt16remove_referenceIT_E4typeEOS8_
FNDA:4,_ZSt4moveIRPN7testing8internal30ParameterizedTestSuiteInfoBaseEEONSt16remove_referenceIT_E4typeEOS6_
FNDA:0,_ZSt4moveIRPNSt7__cxx1112basic_stringIcSt11char_traitsIcESaIcEEEEONSt16remove_referenceIT_E4typeEOS9_
FNDA:68,_ZSt4moveIRPNSt7__cxx1118basic_stringstreamIcSt11char_traitsIcESaIcEEEEONSt16remove_referenceIT_E4typeEOS9_
FNDA:0,_ZSt4moveIRSaIcEEONSt16remove_referenceIT_E4typeEOS3_
FNDA:4,_ZSt4moveIRSt10shared_ptrIN7testing8internal26ParameterizedTestSuiteInfoI21ErrorHandlingHelpTestE8TestInfoEEEONSt16remove_referenceIT_E4typeEOSA_
FNDA:4,_ZSt4moveIRSt10shared_ptrIN7testing8internal26ParameterizedTestSuiteInfoI26ErrorHandlingTestArgumentsE8TestInfoEEEONSt16remove_referenceIT_E4typeEOSA_
FNF:40
FNH:36
DA:51,42
DA:52,42
DA:70,592
DA:71,592
DA:97,266
DA:98,266
DA:138,34
DA:139,34
LF:8
LH:8
end_of_record
TN:
SF:/usr/include/c++/13/bits/new_allocator.h
FN:104,104,_ZNSt15__new_allocatorI13ArgumentsCaseED2Ev
FN:104,104,_ZNSt15__new_allocatorI9ErrorCaseED2Ev
FN:104,104,_ZNSt15__new_allocatorIN7testing8internal26ParameterizedTestSuiteInfoI21ErrorHandlingHelpTestE17InstantiationInfoEED2Ev
FN:104,104,_ZNSt15__new_allocatorIN7testing8internal26ParameterizedTestSuiteInfoI26ErrorHandlingTestArgumentsE17InstantiationInfoEED2Ev
FN:104,104,_ZNSt15__new_allocatorISt10shared_ptrIN7testing8internal26ParameterizedTestSuiteInfoI21ErrorHandlingHelpTestE8TestInfoEEED2Ev
FN:104,104,_ZNSt15__new_allocatorISt10shared_ptrIN7testing8internal26ParameterizedTestSuiteInfoI26ErrorHandlingTestArgumentsE8TestInfoEEED2Ev
FN:104,104,_ZNSt15__new_allocatorISt13_Rb_tree_nodeINSt7__cxx1112basic_stringIcSt11char_traitsIcESaIcEEEEED2Ev
FN:104,104,_ZNSt15__new_allocatorIcED2Ev
FN:126,152,_ZNSt15__new_allocatorI13ArgumentsCaseE8allocateEmPKv
FN:126,152,_ZNSt15__new_allocatorI9ErrorCaseE8allocateEmPKv
FN:126,152,_ZNSt15__new_allocatorIN7testing8internal26ParameterizedTestSuiteInfoI21ErrorHandlingHelpTestE17InstantiationInfoEE8allocateEmPKv
FN:126,152,_ZNSt15__new_allocatorIN7testing8internal26ParameterizedTestSuiteInfoI26ErrorHandlingTestArgumentsE17InstantiationInfoEE8allocateEmPKv
FN:126,152,_ZNSt15__new_allocatorIPN7testing8internal30ParameterizedTestSuiteInfoBaseEE8allocateEmPKv
FN:126,152,_ZNSt15__new_allocatorISt10shared_ptrIN7testing8internal26ParameterizedTestSuiteInfoI21ErrorHandlingHelpTestE8TestInfoEEE8allocateEmPKv
FN:126,152,_ZNSt15__new_allocatorISt10shared_ptrIN7testing8internal26ParameterizedTestSuiteInfoI26ErrorHandlingTestArgumentsE8TestInfoEEE8allocateEmPKv
FN:126,152,_ZNSt15__new_allocatorISt13_Rb_tree_nodeINSt7__cxx1112basic_stringIcSt11char_traitsIcESaIcEEEEE8allocateEmPKv
FN:156,173,_ZNSt15__new_allocatorI13ArgumentsCaseE10deallocateEPS0_m
FN:156,173,_ZNSt15__new_allocatorI9ErrorCaseE10deallocateEPS0_m
FN:156,173,_ZNSt15__new_allocatorIN7testing8internal26ParameterizedTestSuiteInfoI21ErrorHandlingHelpTestE17InstantiationInfoEE10deallocateEPS5_m
FN:156,173,_ZNSt15__new_allocatorIN7testing8internal26ParameterizedTestSuiteInfoI26ErrorHandlingTestArgumentsE17InstantiationInfoEE10deallocateEPS5_m
FN:156,173,_ZNSt15__new_allocatorIPN7testing8internal30ParameterizedTestSuiteInfoBaseEE10deallocateEPS3_m
FN:156,173,_ZNSt15__new_allocatorISt10shared_ptrIN7testing8internal26ParameterizedTestSuiteInfoI21ErrorHandlingHelpTestE8TestInfoEEE10deallocateEPS7_m
FN:156,173,_ZNSt15__new_allocatorISt10shared_ptrIN7testing8internal26ParameterizedTestSuiteInfoI26ErrorHandlingTestArgumentsE8TestInfoEEE10deallocateEPS7_m
FN:156,173,_ZNSt15__new_allocatorISt13_Rb_tree_nodeINSt7__cxx1112basic_stringIcSt11char_traitsIcESaIcEEEEE10deallocateEPS7_m
FNDA:12,_ZNSt15__new_allocatorI13ArgumentsCaseED2Ev
FNDA:12,_ZNSt15__new_allocatorI9ErrorCaseED2Ev
FNDA:2,_ZNSt15__new_allocatorIN7testing8internal26ParameterizedTestSuiteInfoI21ErrorHandlingHelpTestE17InstantiationInfoEED2Ev
FNDA:2,_ZNSt15__new_allocatorIN7testing8internal26ParameterizedTestSuiteInfoI26ErrorHandlingTestArgumentsE17InstantiationInfoEED2Ev
FNDA:2,_ZNSt15__new_allocatorISt10shared_ptrIN7testing8internal26ParameterizedTestSuiteInfoI21ErrorHandlingHelpTestE8TestInfoEEED2Ev
FNDA:2,_ZNSt15__new_allocatorISt10shared_ptrIN7testing8internal26ParameterizedTestSuiteInfoI26ErrorHandlingTestArgumentsE8TestInfoEEED2Ev
FNDA:4,_ZNSt15__new_allocatorISt13_Rb_tree_nodeINSt7__cxx1112basic_stringIcSt11char_traitsIcESaIcEEEEED2Ev
FNDA:97,_ZNSt15__new_allocatorIcED2Ev
FNDA:4,_ZNSt15__new_allocatorI13ArgumentsCaseE8allocateEmPKv
FNDA:4,_ZNSt15__new_allocatorI9ErrorCaseE8allocateEmPKv
FNDA:2,_ZNSt15__new_allocatorIN7testing8internal26ParameterizedTestSuiteInfoI21ErrorHandlingHelpTestE17InstantiationInfoEE8allocateEmPKv
FNDA:2,_ZNSt15__new_allocatorIN7testing8internal26ParameterizedTestSuiteInfoI26ErrorHandlingTestArgumentsE17InstantiationInfoEE8allocateEmPKv
FNDA:4,_ZNSt15__new_allocatorIPN7testing8internal30ParameterizedTestSuiteInfoBaseEE8allocateEmPKv
FNDA:2,_ZNSt15__new_allocatorISt10shared_ptrIN7testing8internal26ParameterizedTestSuiteInfoI21ErrorHandlingHelpTestE8TestInfoEEE8allocateEmPKv
FNDA:2,_ZNSt15__new_allocatorISt10shared_ptrIN7testing8internal26ParameterizedTestSuiteInfoI26ErrorHandlingTestArgumentsE8TestInfoEEE8allocateEmPKv
FNDA:34,_ZNSt15__new_allocatorISt13_Rb_tree_nodeINSt7__cxx1112basic_stringIcSt11char_traitsIcESaIcEEEEE8allocateEmPKv
FNDA:4,_ZNSt15__new_allocatorI13ArgumentsCaseE10deallocateEPS0_m
FNDA:4,_ZNSt15__new_allocatorI9ErrorCaseE10deallocateEPS0_m
FNDA:2,_ZNSt15__new_allocatorIN7testing8internal26ParameterizedTestSuiteInfoI21ErrorHandlingHelpTestE17InstantiationInfoEE10deallocateEPS5_m
FNDA:2,_ZNSt15__new_allocatorIN7testing8internal26ParameterizedTestSuiteInfoI26ErrorHandlingTestArgumentsE17InstantiationInfoEE10deallocateEPS5_m
FNDA:2,_ZNSt15__new_allocatorIPN7testing8internal30ParameterizedTestSuiteInfoBaseEE10deallocateEPS3_m
FNDA:2,_ZNSt15__new_allocatorISt10shared_ptrIN7testing8internal26ParameterizedTestSuiteInfoI21ErrorHandlingHelpTestE8TestInfoEEE10deallocateEPS7_m
FNDA:2,_ZNSt15__new_allocatorISt10shared_ptrIN7testing8internal26ParameterizedTestSuiteInfoI26ErrorHandlingTestArgumentsE8TestInfoEEE10deallocateEPS7_m
FNDA:34,_ZNSt15__new_allocatorISt13_Rb_tree_nodeINSt7__cxx1112basic_stringIcSt11char_traitsIcESaIcEEEEE10deallocateEPS7_m
FNF:24
FNH:24
DA:88,93
DA:92,20
DA:104,133
DA:126,54
DA:134,54
DA:138,0
DA:139,0
DA:140,0
DA:151,54
DA:156,52
DA:172,52
DA:183,32
DA:191,46
DA:198,34
DA:233,86
LF:15
LH:12
end_of_record
TN:
SF:/usr/include/c++/13/bits/shared_ptr.h
FN:204,204,_ZNSt10shared_ptrIN7testing8internal26ParameterizedTestSuiteInfoI21ErrorHandlingHelpTestE8TestInfoEEC2ERKS6_
FN:204,204,_ZNSt10shared_ptrIN7testing8internal26ParameterizedTestSuiteInfoI26ErrorHandlingTestArgumentsE8TestInfoEEC2ERKS6_
FN:214,214,_ZNSt10shared_ptrIKN7testing8internal23ParamGeneratorInterfaceI13ArgumentsCaseEEEC2IS4_vEEPT_
FN:214,214,_ZNSt10shared_ptrIKN7testing8internal23ParamGeneratorInterfaceI9ErrorCaseEEEC2IS4_vEEPT_
FN:214,214,_ZNSt10shared_ptrIN7testing8internal26ParameterizedTestSuiteInfoI21ErrorHandlingHelpTestE8TestInfoEEC2IS5_vEEPT_
FN:214,214,_ZNSt10shared_ptrIN7testing8internal26ParameterizedTestSuiteInfoI26ErrorHandlingTestArgumentsE8TestInfoEEC2IS5_vEEPT_
FN:359,360,_ZNSt10shared_ptrIN7testing8internal26ParameterizedTestSuiteInfoI21ErrorHandlingHelpTestE8TestInfoEEC2EOS6_
FN:359,360,_ZNSt10shared_ptrIN7testing8internal26ParameterizedTestSuiteInfoI26ErrorHandlingTestArgumentsE8TestInfoEEC2EOS6_
FNDA:2,_ZNSt10shared_ptrIN7testing8internal26ParameterizedTestSuiteInfoI21ErrorHandlingHelpTestE8TestInfoEEC2ERKS6_
FNDA:2,_ZNSt10shared_ptrIN7testing8internal26ParameterizedTestSuiteInfoI26ErrorHandlingTestArgumentsE8TestInfoEEC2ERKS6_
FNDA:2,_ZNSt10shared_ptrIKN7testing8internal23ParamGeneratorInterfaceI13ArgumentsCaseEEEC2IS4_vEEPT_
FNDA:2,_ZNSt10shared_ptrIKN7testing8internal23ParamGeneratorInterfaceI9ErrorCaseEEEC2IS4_vEEPT_
FNDA:2,_ZNSt10shared_ptrIN7testing8internal26ParameterizedTestSuiteInfoI21ErrorHandlingHelpTestE8TestInfoEEC2IS5_vEEPT_
FNDA:2,_ZNSt10shared_ptrIN7testing8internal26ParameterizedTestSuiteInfoI26ErrorHandlingTestArgumentsE8TestInfoEEC2IS5_vEEPT_
FNDA:2,_ZNSt10shared_ptrIN7testing8internal26ParameterizedTestSuiteInfoI21ErrorHandlingHelpTestE8TestInfoEEC2EOS6_
FNDA:2,_ZNSt10shared_ptrIN7testing8internal26ParameterizedTestSuiteInfoI26ErrorHandlingTestArgumentsE8TestInfoEEC2EOS6_
FNF:8
FNH:8
DA:204,4
DA:214,8
DA:359,4
DA:360,4
LF:4
LH:4
end_of_record
TN:
SF:/usr/include/c++/13/bits/shared_ptr_base.h
FN:1068,1072,_ZNSt14__shared_countILN9__gnu_cxx12_Lock_policyE2EED2Ev
FN:1074,1079,_ZNSt14__shared_countILN9__gnu_cxx12_Lock_policyE2EEC2ERKS2_
FN:1097,1102,_ZNSt14__shared_countILN9__gnu_cxx12_Lock_policyE2EE7_M_swapERS2_
FN:129,130,_ZNSt16_Sp_counted_baseILN9__gnu_cxx12_Lock_policyE2EEC2Ev
FN:133,134,_ZNSt16_Sp_counted_baseILN9__gnu_cxx12_Lock_policyE2EED0Ev
FN:133,134,_ZNSt16_Sp_counted_baseILN9__gnu_cxx12_Lock_policyE2EED2Ev
FN:1354,1358,_ZNKSt19__shared_ptr_accessIKN7testing8internal23ParamGeneratorInterfaceI13ArgumentsCaseEELN9__gnu_cxx12_Lock_policyE2ELb0ELb0EEptEv
FN:1354,1358,_ZNKSt19__shared_ptr_accessIKN7testing8internal23ParamGeneratorInterfaceI9ErrorCaseEELN9__gnu_cxx12_Lock_policyE2ELb0ELb0EEptEv
FN:1354,1358,_ZNKSt19__shared_ptr_accessIN7testing8internal26ParameterizedTestSuiteInfoI21ErrorHandlingHelpTestE8TestInfoELN9__gnu_cxx12_Lock_policyE2ELb0ELb0EEptEv
FN:1354,1358,_ZNKSt19__shared_ptr_accessIN7testing8internal26ParameterizedTestSuiteInfoI26ErrorHandlingTestArgumentsE8TestInfoELN9__gnu_cxx12_Lock_policyE2ELb0ELb0EEptEv
FN:1362,1363,_ZNKSt19__shared_ptr_accessIKN7testing8internal23ParamGeneratorInterfaceI13ArgumentsCaseEELN9__gnu_cxx12_Lock_policyE2ELb0ELb0EE6_M_getEv
FN:1362,1363,_ZNKSt19__shared_ptr_accessIKN7testing8internal23ParamGeneratorInterfaceI9ErrorCaseEELN9__gnu_cxx12_Lock_policyE2ELb0ELb0EE6_M_getEv
FN:1362,1363,_ZNKSt19__shared_ptr_accessIN7testing8internal26ParameterizedTestSuiteInfoI21ErrorHandlingHelpTestE8TestInfoELN9__gnu_cxx12_Lock_policyE2ELb0ELb0EE6_M_getEv
FN:1362,1363,_ZNKSt19__shared_ptr_accessIN7testing8internal26ParameterizedTestSuiteInfoI26ErrorHandlingTestArgumentsE8TestInfoELN9__gnu_cxx12_Lock_policyE2ELb0ELb0EE6_M_getEv
FN:143,144,_ZNSt16_Sp_counted_baseILN9__gnu_cxx12_Lock_policyE2EE10_M_destroyEv
FN:1468,1474,_ZNSt12__shared_ptrIKN7testing8internal23ParamGeneratorInterfaceI13ArgumentsCaseEELN9__gnu_cxx12_Lock_policyE2EEC2IS4_vEEPT_
FN:1468,1474,_ZNSt12__shared_ptrIKN7testing8internal23ParamGeneratorInterfaceI9ErrorCaseEELN9__gnu_cxx12_Lock_policyE2EEC2IS4_vEEPT_
FN:1468,1474,_ZNSt12__shared_ptrIN7testing8internal26ParameterizedTestSuiteInfoI21ErrorHandlingHelpTestE8TestInfoELN9__gnu_cxx12_Lock_policyE2EEC2IS5_vEEPT_
FN:1468,1474,_ZNSt12__shared_ptrIN7testing8internal26ParameterizedTestSuiteInfoI26ErrorHandlingTestArgumentsE8TestInfoELN9__gnu_cxx12_Lock_policyE2EEC2IS5_vEEPT_
FN:151,152,_ZNSt16_Sp_counted_baseILN9__gnu_cxx12_Lock_policyE2EE15_M_add_ref_copyEv
FN:1522,1522,_ZNSt12__shared_ptrIN7testing8internal26ParameterizedTestSuiteInfoI21ErrorHandlingHelpTestE8TestInfoELN9__gnu_cxx12_Lock_policyE2EEC2ERKS8_
FN:1522,1522,_ZNSt12__shared_ptrIN7testing8internal26ParameterizedTestSuiteInfoI26ErrorHandlingTestArgumentsE8TestInfoELN9__gnu_cxx12_Lock_policyE2EEC2ERKS8_
FN:1524,1524,_ZNSt12__shared_ptrIKN7testing8internal23ParamGeneratorInterfaceI13ArgumentsCaseEELN9__gnu_cxx12_Lock_policyE2EED2Ev
FN:1524,1524,_ZNSt12__shared_ptrIKN7testing8internal23ParamGeneratorInterfaceI9ErrorCaseEELN9__gnu_cxx12_Lock_policyE2EED2Ev
FN:1524,1524,_ZNSt12__shared_ptrIN7testing8internal26ParameterizedTestSuiteInfoI21ErrorHandlingHelpTestE8TestInfoELN9__gnu_cxx12_Lock_policyE2EED2Ev
FN:1524,1524,_ZNSt12__shared_ptrIN7testing8internal26ParameterizedTestSuiteInfoI26ErrorHandlingTestArgumentsE8TestInfoELN9__gnu_cxx12_Lock_policyE2EED2Ev
FN:1531,1536,_ZNSt12__shared_ptrIN7testing8internal26ParameterizedTestSuiteInfoI21ErrorHandlingHelpTestE8TestInfoELN9__gnu_cxx12_Lock_policyE2EEC2EOS8_
FN:1531,1536,_ZNSt12__shared_ptrIN7testing8internal26ParameterizedTestSuiteInfoI26ErrorHandlingTestArgumentsE8TestInfoELN9__gnu_cxx12_Lock_policyE2EEC2EOS8_
FN:1665,1666,_ZNKSt12__shared_ptrIKN7testing8internal23ParamGeneratorInterfaceI13ArgumentsCaseEELN9__gnu_cxx12_Lock_policyE2EE3getEv
FN:1665,1666,_ZNKSt12__shared_ptrIKN7testing8internal23ParamGeneratorInterfaceI9ErrorCaseEELN9__gnu_cxx12_Lock_policyE2EE3getEv
FN:1665,1666,_ZNKSt12__shared_ptrIN7testing8internal26ParameterizedTestSuiteInfoI21ErrorHandlingHelpTestE8TestInfoELN9__gnu_cxx12_Lock_policyE2EE3getEv
FN:1665,1666,_ZNKSt12__shared_ptrIN7testing8internal26ParameterizedTestSuiteInfoI26ErrorHandlingTestArgumentsE8TestInfoELN9__gnu_cxx12_Lock_policyE2EE3getEv
FN:172,193,_ZNSt16_Sp_counted_baseILN9__gnu_cxx12_Lock_policyE2EE19_M_release_last_useEv
FN:1765,1766,_ZNSt12__shared_ptrIKN7testing8internal23ParamGeneratorInterfaceI13ArgumentsCaseEELN9__gnu_cxx12_Lock_policyE2EE31_M_enable_shared_from_this_withIS4_S4_EENSt9enable_ifIXntsrNS8_15__has_esft_baseIT0_vEE5valueEvE4typeEPT_
FN:1765,1766,_ZNSt12__shared_ptrIKN7testing8internal23ParamGeneratorInterfaceI9ErrorCaseEELN9__gnu_cxx12_Lock_policyE2EE31_M_enable_shared_from_this_withIS4_S4_EENSt9enable_ifIXntsrNS8_15__has_esft_baseIT0_vEE5valueEvE4typeEPT_
FN:1765,1766,_ZNSt12__shared_ptrIN7testing8internal26ParameterizedTestSuiteInfoI21ErrorHandlingHelpTestE8TestInfoELN9__gnu_cxx12_Lock_policyE2EE31_M_enable_shared_from_this_withIS5_S5_EENSt9enable_ifIXntsrNS8_15__has_esft_baseIT0_vEE5valueEvE4typeEPT_
FN:1765,1766,_ZNSt12__shared_ptrIN7testing8internal26ParameterizedTestSuiteInfoI26ErrorHandlingTestArgumentsE8TestInfoELN9__gnu_cxx12_Lock_policyE2EE31_M_enable_shared_from_this_withIS5_S5_EENSt9enable_ifIXntsrNS8_15__has_esft_baseIT0_vEE5valueEvE4typeEPT_
FN:198,199,_ZNSt16_Sp_counted_baseILN9__gnu_cxx12_Lock_policyE2EE24_M_release_last_use_coldEv
FN:317,363,_ZNSt16_Sp_counted_baseILN9__gnu_cxx12_Lock_policyE2EE10_M_releaseEv
FN:423,424,_ZNSt15_Sp_counted_ptrIPN7testing8internal23ParamGeneratorInterfaceI13ArgumentsCaseEELN9__gnu_cxx12_Lock_policyE2EEC2ES5_
FN:423,424,_ZNSt15_Sp_counted_ptrIPN7testing8internal23ParamGeneratorInterfaceI9ErrorCaseEELN9__gnu_cxx12_Lock_policyE2EEC2ES5_
FN:423,424,_ZNSt15_Sp_counted_ptrIPN7testing8internal26ParameterizedTestSuiteInfoI21ErrorHandlingHelpTestE8TestInfoELN9__gnu_cxx12_Lock_policyE2EEC2ES6_
FN:423,424,_ZNSt15_Sp_counted_ptrIPN7testing8internal26ParameterizedTestSuiteInfoI26ErrorHandlingTestArgumentsE8TestInfoELN9__gnu_cxx12_Lock_policyE2EEC2ES6_
FN:427,428,_ZNSt15_Sp_counted_ptrIPN7testing8internal23ParamGeneratorInterfaceI13ArgumentsCaseEELN9__gnu_cxx12_Lock_policyE2EE10_M_disposeEv
FN:427,428,_ZNSt15_Sp_counted_ptrIPN7testing8internal23ParamGeneratorInterfaceI9ErrorCaseEELN9__gnu_cxx12_Lock_policyE2EE10_M_disposeEv
FN:427,428,_ZNSt15_Sp_counted_ptrIPN7testing8internal26ParameterizedTestSuiteInfoI21ErrorHandlingHelpTestE8TestInfoELN9__gnu_cxx12_Lock_policyE2EE10_M_disposeEv
FN:427,428,_ZNSt15_Sp_counted_ptrIPN7testing8internal26ParameterizedTestSuiteInfoI26ErrorHandlingTestArgumentsE8TestInfoELN9__gnu_cxx12_Lock_policyE2EE10_M_disposeEv
FN:431,432,_ZNSt15_Sp_counted_ptrIPN7testing8internal23ParamGeneratorInterfaceI13ArgumentsCaseEELN9__gnu_cxx12_Lock_policyE2EE10_M_destroyEv
FN:431,432,_ZNSt15_Sp_counted_ptrIPN7testing8internal23ParamGeneratorInterfaceI9ErrorCaseEELN9__gnu_cxx12_Lock_policyE2EE10_M_destroyEv
FN:431,432,_ZNSt15_Sp_counted_ptrIPN7testing8internal26ParameterizedTestSuiteInfoI21ErrorHandlingHelpTestE8TestInfoELN9__gnu_cxx12_Lock_policyE2EE10_M_destroyEv
FN:431,432,_ZNSt15_Sp_counted_ptrIPN7testing8internal26ParameterizedTestSuiteInfoI26ErrorHandlingTestArgumentsE8TestInfoELN9__gnu_cxx12_Lock_policyE2EE10_M_destroyEv
FN:435,436,_ZNSt15_Sp_counted_ptrIPN7testing8internal23ParamGeneratorInterfaceI13ArgumentsCaseEELN9__gnu_cxx12_Lock_policyE2EE14_M_get_deleterERKSt9type_info
FN:435,436,_ZNSt15_Sp_counted_ptrIPN7testing8internal23ParamGeneratorInterfaceI9ErrorCaseEELN9__gnu_cxx12_Lock_policyE2EE14_M_get_deleterERKSt9type_info
FN:435,436,_ZNSt15_Sp_counted_ptrIPN7testing8internal26ParameterizedTestSuiteInfoI21ErrorHandlingHelpTestE8TestInfoELN9__gnu_cxx12_Lock_policyE2EE14_M_get_deleterERKSt9type_info
FN:435,436,_ZNSt15_Sp_counted_ptrIPN7testing8internal26ParameterizedTestSuiteInfoI26ErrorHandlingTestArgumentsE8TestInfoELN9__gnu_cxx12_Lock_policyE2EE14_M_get_deleterERKSt9type_info
FN:908,909,_ZNSt14__shared_countILN9__gnu_cxx12_Lock_policyE2EEC2Ev
FN:913,924,_ZNSt14__shared_countILN9__gnu_cxx12_Lock_policyE2EEC2IPN7testing8internal23ParamGeneratorInterfaceI13ArgumentsCaseEEEET_
FN:913,924,_ZNSt14__shared_countILN9__gnu_cxx12_Lock_policyE2EEC2IPN7testing8internal23ParamGeneratorInterfaceI9ErrorCaseEEEET_
FN:913,924,_ZNSt14__shared_countILN9__gnu_cxx12_Lock_policyE2EEC2IPN7testing8internal26ParameterizedTestSuiteInfoI21ErrorHandlingHelpTestE8TestInfoEEET_
FN:913,924,_ZNSt14__shared_countILN9__gnu_cxx12_Lock_policyE2EEC2IPN7testing8internal26ParameterizedTestSuiteInfoI26ErrorHandlingTestArgumentsE8TestInfoEEET_
FN:927,929,_ZNSt14__shared_countILN9__gnu_cxx12_Lock_policyE2EEC2IPN7testing8internal23ParamGeneratorInterfaceI13ArgumentsCaseEEEET_St17integral_constantIbLb0EE
FN:927,929,_ZNSt14__shared_countILN9__gnu_cxx12_Lock_policyE2EEC2IPN7testing8internal23ParamGeneratorInterfaceI9ErrorCaseEEEET_St17integral_constantIbLb0EE
FN:927,929,_ZNSt14__shared_countILN9__gnu_cxx12_Lock_policyE2EEC2IPN7testing8internal26ParameterizedTestSuiteInfoI21ErrorHandlingHelpTestE8TestInfoEEET_St17integral_constantIbLb0EE
FN:927,929,_ZNSt14__shared_countILN9__gnu_cxx12_Lock_policyE2EEC2IPN7testing8internal26ParameterizedTestSuiteInfoI26ErrorHandlingTestArgumentsE8TestInfoEEET_St17integral_constantIbLb0EE
FNDA:16,_ZNSt14__shared_countILN9__gnu_cxx12_Lock_policyE2EED2Ev
FNDA:4,_ZNSt14__shared_countILN9__gnu_cxx12_Lock_policyE2EEC2ERKS2_
FNDA:4,_ZNSt14__shared_countILN9__gnu_cxx12_Lock_policyE2EE7_M_swapERS2_
FNDA:8,_ZNSt16_Sp_counted_baseILN9__gnu_cxx12_Lock_policyE2EEC2Ev
FNDA:0,_ZNSt16_Sp_counted_baseILN9__gnu_cxx12_Lock_policyE2EED0Ev
FNDA:8,_ZNSt16_Sp_counted_baseILN9__gnu_cxx12_Lock_policyE2EED2Ev
FNDA:24,_ZNKSt19__shared_ptr_accessIKN7testing8internal23ParamGeneratorInterfaceI13ArgumentsCaseEELN9__gnu_cxx12_Lock_policyE2ELb0ELb0EEptEv
FNDA:18,_ZNKSt19__shared_ptr_accessIKN7testing8internal23ParamGeneratorInterfaceI9ErrorCaseEELN9__gnu_cxx12_Lock_policyE2ELb0ELb0EEptEv
FNDA:58,_ZNKSt19__shared_ptr_accessIN7testing8internal26ParameterizedTestSuiteInfoI21ErrorHandlingHelpTestE8TestInfoELN9__gnu_cxx12_Lock_policyE2ELb0ELb0EEptEv
FNDA:82,_ZNKSt19__shared_ptr_accessIN7testing8internal26ParameterizedTestSuiteInfoI26ErrorHandlingTestArgumentsE8TestInfoELN9__gnu_cxx12_Lock_policyE2ELb0ELb0EEptEv
FNDA:24,_ZNKSt19__shared_ptr_accessIKN7testing8internal23ParamGeneratorInterfaceI13ArgumentsCaseEELN9__gnu_cxx12_Lock_policyE2ELb0ELb0EE6_M_getEv
FNDA:18,_ZNKSt19__shared_ptr_accessIKN7testing8internal23ParamGeneratorInterfaceI9ErrorCaseEELN9__gnu_cxx12_Lock_policyE2ELb0ELb0EE6_M_getEv
FNDA:58,_ZNKSt19__shared_ptr_accessIN7testing8internal26ParameterizedTestSuiteInfoI21ErrorHandlingHelpTestE8TestInfoELN9__gnu_cxx12_Lock_policyE2ELb0ELb0EE6_M_getEv
FNDA:82,_ZNKSt19__shared_ptr_accessIN7testing8internal26ParameterizedTestSuiteInfoI26ErrorHandlingTestArgumentsE8TestInfoELN9__gnu_cxx12_Lock_policyE2ELb0ELb0EE6_M_getEv
FNDA:0,_ZNSt16_Sp_counted_baseILN9__gnu_cxx12_Lock_policyE2EE10_M_destroyEv
FNDA:2,_ZNSt12__shared_ptrIKN7testing8internal23ParamGeneratorInterfaceI13ArgumentsCaseEELN9__gnu_cxx12_Lock_policyE2EEC2IS4_vEEPT_
FNDA:2,_ZNSt12__shared_ptrIKN7testing8internal23ParamGeneratorInterfaceI9ErrorCaseEELN9__gnu_cxx12_Lock_policyE2EEC2IS4_vEEPT_
FNDA:2,_ZNSt12__shared_ptrIN7testing8internal26ParameterizedTestSuiteInfoI21ErrorHandlingHelpTestE8TestInfoELN9__gnu_cxx12_Lock_policyE2EEC2IS5_vEEPT_
FNDA:2,_ZNSt12__shared_ptrIN7testing8internal26ParameterizedTestSuiteInfoI26ErrorHandlingTestArgumentsE8TestInfoELN9__gnu_cxx12_Lock_policyE2EEC2IS5_vEEPT_
FNDA:4,_ZNSt16_Sp_counted_baseILN9__gnu_cxx12_Lock_policyE2EE15_M_add_ref_copyEv
FNDA:2,_ZNSt12__shared_ptrIN7testing8internal26ParameterizedTestSuiteInfoI21ErrorHandlingHelpTestE8TestInfoELN9__gnu_cxx12_Lock_policyE2EEC2ERKS8_
FNDA:2,_ZNSt12__shared_ptrIN7testing8internal26ParameterizedTestSuiteInfoI26ErrorHandlingTestArgumentsE8TestInfoELN9__gnu_cxx12_Lock_policyE2EEC2ERKS8_
FNDA:2,_ZNSt12__shared_ptrIKN7testing8internal23ParamGeneratorInterfaceI13ArgumentsCaseEELN9__gnu_cxx12_Lock_policyE2EED2Ev
FNDA:2,_ZNSt12__shared_ptrIKN7testing8internal23ParamGeneratorInterfaceI9ErrorCaseEELN9__gnu_cxx12_Lock_policyE2EED2Ev
FNDA:6,_ZNSt12__shared_ptrIN7testing8internal26ParameterizedTestSuiteInfoI21ErrorHandlingHelpTestE8TestInfoELN9__gnu_cxx12_Lock_policyE2EED2Ev
FNDA:6,_ZNSt12__shared_ptrIN7testing8internal26ParameterizedTestSuiteInfoI26ErrorHandlingTestArgumentsE8TestInfoELN9__gnu_cxx12_Lock_policyE2EED2Ev
FNDA:2,_ZNSt12__shared_ptrIN7testing8internal26ParameterizedTestSuiteInfoI21ErrorHandlingHelpTestE8TestInfoELN9__gnu_cxx12_Lock_policyE2EEC2EOS8_
FNDA:2,_ZNSt12__shared_ptrIN7testing8internal26ParameterizedTestSuiteInfoI26ErrorHandlingTestArgumentsE8TestInfoELN9__gnu_cxx12_Lock_policyE2EEC2EOS8_
FNDA:24,_ZNKSt12__shared_ptrIKN7testing8internal23ParamGeneratorInterfaceI13ArgumentsCaseEELN9__gnu_cxx12_Lock_policyE2EE3getEv
FNDA:18,_ZNKSt12__shared_ptrIKN7testing8internal23ParamGeneratorInterfaceI9ErrorCaseEELN9__gnu_cxx12_Lock_policyE2EE3getEv
FNDA:58,_ZNKSt12__shared_ptrIN7testing8internal26ParameterizedTestSuiteInfoI21ErrorHandlingHelpTestE8TestInfoELN9__gnu_cxx12_Lock_policyE2EE3getEv
FNDA:82,_ZNKSt12__shared_ptrIN7testing8internal26ParameterizedTestSuiteInfoI26ErrorHandlingTestArgumentsE8TestInfoELN9__gnu_cxx12_Lock_policyE2EE3getEv
FNDA:0,_ZNSt16_Sp_counted_baseILN9__gnu_cxx12_Lock_policyE2EE19_M_release_last_useEv
FNDA:2,_ZNSt12__shared_ptrIKN7testing8internal23ParamGeneratorInterfaceI13ArgumentsCaseEELN9__gnu_cxx12_Lock_policyE2EE31_M_enable_shared_from_this_withIS4_S4_EENSt9enable_ifIXntsrNS8_15__has_esft_baseIT0_vEE5valueEvE4typeEPT_
FNDA:2,_ZNSt12__shared_ptrIKN7testing8internal23ParamGeneratorInterfaceI9ErrorCaseEELN9__gnu_cxx12_Lock_policyE2EE31_M_enable_shared_from_this_withIS4_S4_EENSt9enable_ifIXntsrNS8_15__has_esft_baseIT0_vEE5valueEvE4typeEPT_
FNDA:2,_ZNSt12__shared_ptrIN7testing8internal26ParameterizedTestSuiteInfoI21ErrorHandlingHelpTestE8TestInfoELN9__gnu_cxx12_Lock_policyE2EE31_M_enable_shared_from_this_withIS5_S5_EENSt9enable_ifIXntsrNS8_15__has_esft_baseIT0_vEE5valueEvE4typeEPT_
FNDA:2,_ZNSt12__shared_ptrIN7testing8internal26ParameterizedTestSuiteInfoI26ErrorHandlingTestArgumentsE8TestInfoELN9__gnu_cxx12_Lock_policyE2EE31_M_enable_shared_from_this_withIS5_S5_EENSt9enable_ifIXntsrNS8_15__has_esft_baseIT0_vEE5valueEvE4typeEPT_
FNDA:0,_ZNSt16_Sp_counted_baseILN9__gnu_cxx12_Lock_policyE2EE24_M_release_last_use_coldEv
FNDA:12,_ZNSt16_Sp_counted_baseILN9__gnu_cxx12_Lock_policyE2EE10_M_releaseEv
FNDA:2,_ZNSt15_Sp_counted_ptrIPN7testing8internal23ParamGeneratorInterfaceI13ArgumentsCaseEELN9__gnu_cxx12_Lock_policyE2EEC2ES5_
FNDA:2,_ZNSt15_Sp_counted_ptrIPN7testing8internal23ParamGeneratorInterfaceI9ErrorCaseEELN9__gnu_cxx12_Lock_policyE2EEC2ES5_
FNDA:2,_ZNSt15_Sp_counted_ptrIPN7testing8internal26ParameterizedTestSuiteInfoI21ErrorHandlingHelpTestE8TestInfoELN9__gnu_cxx12_Lock_policyE2EEC2ES6_
FNDA:2,_ZNSt15_Sp_counted_ptrIPN7testing8internal26ParameterizedTestSuiteInfoI26ErrorHandlingTestArgumentsE8TestInfoELN9__gnu_cxx12_Lock_policyE2EEC2ES6_
FNDA:2,_ZNSt15_Sp_counted_ptrIPN7testing8internal23ParamGeneratorInterfaceI13ArgumentsCaseEELN9__gnu_cxx12_Lock_policyE2EE10_M_disposeEv
FNDA:2,_ZNSt15_Sp_counted_ptrIPN7testing8internal23ParamGeneratorInterfaceI9ErrorCaseEELN9__gnu_cxx12_Lock_policyE2EE10_M_disposeEv
FNDA:2,_ZNSt15_Sp_counted_ptrIPN7testing8internal26ParameterizedTestSuiteInfoI21ErrorHandlingHelpTestE8TestInfoELN9__gnu_cxx12_Lock_policyE2EE10_M_disposeEv
FNDA:2,_ZNSt15_Sp_counted_ptrIPN7testing8internal26ParameterizedTestSuiteInfoI26ErrorHandlingTestArgumentsE8TestInfoELN9__gnu_cxx12_Lock_policyE2EE10_M_disposeEv
FNDA:2,_ZNSt15_Sp_counted_ptrIPN7testing8internal23ParamGeneratorInterfaceI13ArgumentsCaseEELN9__gnu_cxx12_Lock_policyE2EE10_M_destroyEv
FNDA:2,_ZNSt15_Sp_counted_ptrIPN7testing8internal23ParamGeneratorInterfaceI9ErrorCaseEELN9__gnu_cxx12_Lock_policyE2EE10_M_destroyEv
FNDA:2,_ZNSt15_Sp_counted_ptrIPN7testing8internal26ParameterizedTestSuiteInfoI21ErrorHandlingHelpTestE8TestInfoELN9__gnu_cxx12_Lock_policyE2EE10_M_destroyEv
FNDA:2,_ZNSt15_Sp_counted_ptrIPN7testing8internal26ParameterizedTestSuiteInfoI26ErrorHandlingTestArgumentsE8TestInfoELN9__gnu_cxx12_Lock_policyE2EE10_M_destroyEv
FNDA:0,_ZNSt15_Sp_counted_ptrIPN7testing8internal23ParamGeneratorInterfaceI13ArgumentsCaseEELN9__gnu_cxx12_Lock_policyE2EE14_M_get_deleterERKSt9type_info
FNDA:0,_ZNSt15_Sp_counted_ptrIPN7testing8internal23ParamGeneratorInterfaceI9ErrorCaseEELN9__gnu_cxx12_Lock_policyE2EE14_M_get_deleterERKSt9type_info
FNDA:0,_ZNSt15_Sp_counted_ptrIPN7testing8internal26ParameterizedTestSuiteInfoI21ErrorHandlingHelpTestE8TestInfoELN9__gnu_cxx12_Lock_policyE2EE14_M_get_deleterERKSt9type_info
FNDA:0,_ZNSt15_Sp_counted_ptrIPN7testing8internal26ParameterizedTestSuiteInfoI26ErrorHandlingTestArgumentsE8TestInfoELN9__gnu_cxx12_Lock_policyE2EE14_M_get_deleterERKSt9type_info
FNDA:4,_ZNSt14__shared_countILN9__gnu_cxx12_Lock_policyE2EEC2Ev
FNDA:2,_ZNSt14__shared_countILN9__gnu_cxx12_Lock_policyE2EEC2IPN7testing8internal23ParamGeneratorInterfaceI13ArgumentsCaseEEEET_
FNDA:2,_ZNSt14__shared_countILN9__gnu_cxx12_Lock_policyE2EEC2IPN7testing8internal23ParamGeneratorInterfaceI9ErrorCaseEEEET_
FNDA:2,_ZNSt14__shared_countILN9__gnu_cxx12_Lock_policyE2EEC2IPN7testing8internal26ParameterizedTestSuiteInfoI21ErrorHandlingHelpTestE8TestInfoEEET_
FNDA:2,_ZNSt14__shared_countILN9__gnu_cxx12_Lock_policyE2EEC2IPN7testing8internal26ParameterizedTestSuiteInfoI26ErrorHandlingTestArgumentsE8TestInfoEEET_
FNDA:2,_ZNSt14__shared_countILN9__gnu_cxx12_Lock_policyE2EEC2IPN7testing8internal23ParamGeneratorInterfaceI13ArgumentsCaseEEEET_St17integral_constantIbLb0EE
FNDA:2,_ZNSt14__shared_countILN9__gnu_cxx12_Lock_policyE2EEC2IPN7testing8internal23ParamGeneratorInterfaceI9ErrorCaseEEEET_St17integral_constantIbLb0EE
FNDA:2,_ZNSt14__shared_countILN9__gnu_cxx12_Lock_policyE2EEC2IPN7testing8internal26ParameterizedTestSuiteInfoI21ErrorHandlingHelpTestE8TestInfoEEET_St17integral_constantIbLb0EE
FNDA:2,_ZNSt14__shared_countILN9__gnu_cxx12_Lock_policyE2EEC2IPN7testing8internal26ParameterizedTestSuiteInfoI26ErrorHandlingTestArgumentsE8TestInfoEEET_St17integral_constantIbLb0EE
FNF:64
FNH:56
DA:129,8
DA:130,8
DA:133,8
DA:134,8
DA:143,0
DA:144,0
DA:151,4
DA:152,4
DA:172,0
DA:175,0
DA:187,0
DA:188,0
DA:191,0
DA:193,0
DA:198,0
DA:199,0
DA:317,12
DA:321,12
DA:324,12
DA:328,12
DA:331,12
DA:332,12
DA:333,12
DA:334,12
DA:337,12
DA:343,8
DA:346,8
DA:347,8
DA:348,8
DA:350,8
DA:351,0
DA:353,0
DA:354,0
DA:423,8
DA:424,8
DA:427,8
DA:428,8
DA:431,8
DA:432,8
DA:435,0
DA:436,0
DA:908,4
DA:909,4
DA:913,8
DA:917,8
DA:919,0
DA:921,0
DA:922,0
DA:924,8
DA:927,8
DA:928,8
DA:929,8
DA:1068,16
DA:1070,16
DA:1071,12
DA:1072,16
DA:1074,4
DA:1075,4
DA:1077,4
DA:1078,4
DA:1079,4
DA:1097,4
DA:1099,4
DA:1100,4
DA:1101,4
DA:1102,4
DA:1354,182
DA:1357,182
DA:1362,182
DA:1363,182
DA:1468,8
DA:1469,8
DA:1473,8
DA:1474,8
DA:1522,4
DA:1524,16
DA:1531,4
DA:1532,4
DA:1534,4
DA:1535,4
DA:1536,4
DA:1665,182
DA:1666,182
DA:1765,8
DA:1766,8
LF:85
LH:67
end_of_record
TN:
SF:/usr/include/c++/13/bits/stl_algobase.h
FN:233,241,_ZSt3minImERKT_S2_S2_
FN:257,265,_ZSt3maxImERKT_S2_S2_
FN:316,318,_ZSt12__niter_baseIP13ArgumentsCaseET_S2_
FN:316,318,_ZSt12__niter_baseIP9ErrorCaseET_S2_
FN:316,318,_ZSt12__niter_baseIPK13ArgumentsCaseET_S3_
FN:316,318,_ZSt12__niter_baseIPK9ErrorCaseET_S3_
FN:316,318,_ZSt12__niter_baseIPN7testing8internal26ParameterizedTestSuiteInfoI21ErrorHandlingHelpTestE17InstantiationInfoEET_S7_
FN:316,318,_ZSt12__niter_baseIPN7testing8internal26ParameterizedTestSuiteInfoI26ErrorHandlingTestArgumentsE17InstantiationInfoEET_S7_
FN:316,318,_ZSt12__niter_baseIPPN7testing8internal30ParameterizedTestSuiteInfoBaseEET_S5_
FN:316,318,_ZSt12__niter_baseIPSt10shared_ptrIN7testing8internal26ParameterizedTestSuiteInfoI21ErrorHandlingHelpTestE8TestInfoEEET_S9_
FN:316,318,_ZSt12__niter_baseIPSt10shared_ptrIN7testing8internal26ParameterizedTestSuiteInfoI26ErrorHandlingTestArgumentsE8TestInfoEEET_S9_
FN:338,339,_ZSt12__niter_wrapIP13ArgumentsCaseET_RKS2_S2_
FN:338,339,_ZSt12__niter_wrapIP9ErrorCaseET_RKS2_S2_
FN:397,398,_ZNSt11__copy_moveILb0ELb0ESt26random_access_iterator_tagE12__assign_oneI13ArgumentsCaseKS3_EEvPT_PT0_
FN:397,398,_ZNSt11__copy_moveILb0ELb0ESt26random_access_iterator_tagE12__assign_oneI9ErrorCaseKS3_EEvPT_PT0_
FN:433,442,_ZNSt11__copy_moveILb0ELb1ESt26random_access_iterator_tagE8__copy_mIK13ArgumentsCaseS3_EEPT0_PT_S8_S6_
FN:433,442,_ZNSt11__copy_moveILb0ELb1ESt26random_access_iterator_tagE8__copy_mIK9ErrorCaseS3_EEPT0_PT_S8_S6_
FN:497,507,_ZSt14__copy_move_a2ILb0EPK13ArgumentsCasePS0_ET1_T0_S5_S4_
FN:497,507,_ZSt14__copy_move_a2ILb0EPK9ErrorCasePS0_ET1_T0_S5_S4_
FN:532,533,_ZSt14__copy_move_a1ILb0EPK13ArgumentsCasePS0_ET1_T0_S5_S4_
FN:532,533,_ZSt14__copy_move_a1ILb0EPK9ErrorCasePS0_ET1_T0_S5_S4_
FN:538,544,_ZSt13__copy_move_aILb0EN9__gnu_cxx17__normal_iteratorIPK13ArgumentsCaseSt6vectorIS2_SaIS2_EEEEPS2_ET1_T0_SB_SA_
FN:538,544,_ZSt13__copy_move_aILb0EN9__gnu_cxx17__normal_iteratorIPK9ErrorCaseSt6vectorIS2_SaIS2_EEEEPS2_ET1_T0_SB_SA_
FN:538,544,_ZSt13__copy_move_aILb0EPK13ArgumentsCasePS0_ET1_T0_S5_S4_
FN:538,544,_ZSt13__copy_move_aILb0EPK9ErrorCasePS0_ET1_T0_S5_S4_
FN:624,634,_ZSt4copyIN9__gnu_cxx17__normal_iteratorIPK13ArgumentsCaseSt6vectorIS2_SaIS2_EEEEPS2_ET0_T_SB_SA_
FN:624,634,_ZSt4copyIN9__gnu_cxx17__normal_iteratorIPK9ErrorCaseSt6vectorIS2_SaIS2_EEEEPS2_ET0_T_SB_SA_
FN:624,634,_ZSt4copyIPK13ArgumentsCasePS0_ET0_T_S5_S4_
FN:624,634,_ZSt4copyIPK9ErrorCasePS0_ET0_T_S5_S4_
FNDA:32,_ZSt3minImERKT_S2_S2_
FNDA:12,_ZSt3maxImERKT_S2_S2_
FNDA:4,_ZSt12__niter_baseIP13ArgumentsCaseET_S2_
FNDA:4,_ZSt12__niter_baseIP9ErrorCaseET_S2_
FNDA:4,_ZSt12__niter_baseIPK13ArgumentsCaseET_S3_
FNDA:4,_ZSt12__niter_baseIPK9ErrorCaseET_S3_
FNDA:12,_ZSt12__niter_baseIPN7testing8internal26ParameterizedTestSuiteInfoI21ErrorHandlingHelpTestE17InstantiationInfoEET_S7_
FNDA:12,_ZSt12__niter_baseIPN7testing8internal26ParameterizedTestSuiteInfoI26ErrorHandlingTestArgumentsE17InstantiationInfoEET_S7_
FNDA:24,_ZSt12__niter_baseIPPN7testing8internal30ParameterizedTestSuiteInfoBaseEET_S5_
FNDA:12,_ZSt12__niter_baseIPSt10shared_ptrIN7testing8internal26ParameterizedTestSuiteInfoI21ErrorHandlingHelpTestE8TestInfoEEET_S9_
FNDA:12,_ZSt12__niter_baseIPSt10shared_ptrIN7testing8internal26ParameterizedTestSuiteInfoI26ErrorHandlingTestArgumentsE8TestInfoEEET_S9_
FNDA:4,_ZSt12__niter_wrapIP13ArgumentsCaseET_RKS2_S2_
FNDA:4,_ZSt12__niter_wrapIP9ErrorCaseET_RKS2_S2_
FNDA:0,_ZNSt11__copy_moveILb0ELb0ESt26random_access_iterator_tagE12__assign_oneI13ArgumentsCaseKS3_EEvPT_PT0_
FNDA:0,_ZNSt11__copy_moveILb0ELb0ESt26random_access_iterator_tagE12__assign_oneI9ErrorCaseKS3_EEvPT_PT0_
FNDA:4,_ZNSt11__copy_moveILb0ELb1ESt26random_access_iterator_tagE8__copy_mIK13ArgumentsCaseS3_EEPT0_PT_S8_S6_
FNDA:4,_ZNSt11__copy_moveILb0ELb1ESt26random_access_iterator_tagE8__copy_mIK9ErrorCaseS3_EEPT0_PT_S8_S6_
FNDA:4,_ZSt14__copy_move_a2ILb0EPK13ArgumentsCasePS0_ET1_T0_S5_S4_
FNDA:4,_ZSt14__copy_move_a2ILb0EPK9ErrorCasePS0_ET1_T0_S5_S4_
FNDA:4,_ZSt14__copy_move_a1ILb0EPK13ArgumentsCasePS0_ET1_T0_S5_S4_
FNDA:4,_ZSt14__copy_move_a1ILb0EPK9ErrorCasePS0_ET1_T0_S5_S4_
FNDA:2,_ZSt13__copy_move_aILb0EN9__gnu_cxx17__normal_iteratorIPK13ArgumentsCaseSt6vectorIS2_SaIS2_EEEEPS2_ET1_T0_SB_SA_
FNDA:2,_ZSt13__copy_move_aILb0EN9__gnu_cxx17__normal_iteratorIPK9ErrorCaseSt6vectorIS2_SaIS2_EEEEPS2_ET1_T0_SB_SA_
FNDA:2,_ZSt13__copy_move_aILb0EPK13ArgumentsCasePS0_ET1_T0_S5_S4_
FNDA:2,_ZSt13__copy_move_aILb0EPK9ErrorCasePS0_ET1_T0_S5_S4_
FNDA:2,_ZSt4copyIN9__gnu_cxx17__normal_iteratorIPK13ArgumentsCaseSt6vectorIS2_SaIS2_EEEEPS2_ET0_T_SB_SA_
FNDA:2,_ZSt4copyIN9__gnu_cxx17__normal_iteratorIPK9ErrorCaseSt6vectorIS2_SaIS2_EEEEPS2_ET0_T_SB_SA_
FNDA:2,_ZSt4copyIPK13ArgumentsCasePS0_ET0_T_S5_S4_
FNDA:2,_ZSt4copyIPK9ErrorCasePS0_ET0_T_S5_S4_
FNF:29
FNH:27
DA:233,32
DA:238,32
DA:239,0
DA:240,32
DA:257,12
DA:262,12
DA:263,10
DA:264,2
DA:316,88
DA:318,88
DA:338,8
DA:339,8
DA:397,0
DA:398,0
DA:433,8
DA:435,8
DA:436,8
DA:437,8
DA:438,0
DA:440,0
DA:441,8
DA:497,8
DA:506,8
DA:532,8
DA:533,8
DA:538,8
DA:540,8
DA:543,8
DA:624,8
DA:633,8
LF:30
LH:25
end_of_record
TN:
SF:/usr/include/c++/13/bits/stl_construct.h
FN:146,153,_ZSt8_DestroyIN7testing8internal26ParameterizedTestSuiteInfoI21ErrorHandlingHelpTestE17InstantiationInfoEEvPT_
FN:146,153,_ZSt8_DestroyIN7testing8internal26ParameterizedTestSuiteInfoI26ErrorHandlingTestArgumentsE17InstantiationInfoEEvPT_
FN:146,153,_ZSt8_DestroyISt10shared_ptrIN7testing8internal26ParameterizedTestSuiteInfoI21ErrorHandlingHelpTestE8TestInfoEEEvPT_
FN:146,153,_ZSt8_DestroyISt10shared_ptrIN7testing8internal26ParameterizedTestSuiteInfoI26ErrorHandlingTestArgumentsE8TestInfoEEEvPT_
FN:160,164,_ZNSt12_Destroy_auxILb0EE9__destroyIPN7testing8internal26ParameterizedTestSuiteInfoI21ErrorHandlingHelpTestE17InstantiationInfoEEEvT_S9_
FN:160,164,_ZNSt12_Destroy_auxILb0EE9__destroyIPN7testing8internal26ParameterizedTestSuiteInfoI26ErrorHandlingTestArgumentsE17InstantiationInfoEEEvT_S9_
FN:160,164,_ZNSt12_Destroy_auxILb0EE9__destroyIPSt10shared_ptrIN7testing8internal26ParameterizedTestSuiteInfoI21ErrorHandlingHelpTestE8TestInfoEEEEvT_SB_
FN:160,164,_ZNSt12_Destroy_auxILb0EE9__destroyIPSt10shared_ptrIN7testing8internal26ParameterizedTestSuiteInfoI26ErrorHandlingTestArgumentsE8TestInfoEEEEvT_SB_
FN:172,172,_ZNSt12_Destroy_auxILb1EE9__destroyIP13ArgumentsCaseEEvT_S4_
FN:172,172,_ZNSt12_Destroy_auxILb1EE9__destroyIP9ErrorCaseEEvT_S4_
FN:182,197,_ZSt8_DestroyIP13ArgumentsCaseEvT_S2_
FN:182,197,_ZSt8_DestroyIP9ErrorCaseEvT_S2_
FN:182,197,_ZSt8_DestroyIPN7testing8internal26ParameterizedTestSuiteInfoI21ErrorHandlingHelpTestE17InstantiationInfoEEvT_S7_
FN:182,197,_ZSt8_DestroyIPN7testing8internal26ParameterizedTestSuiteInfoI26ErrorHandlingTestArgumentsE17InstantiationInfoEEvT_S7_
FN:182,197,_ZSt8_DestroyIPSt10shared_ptrIN7testing8internal26ParameterizedTestSuiteInfoI21ErrorHandlingHelpTestE8TestInfoEEEvT_S9_
FN:182,197,_ZSt8_DestroyIPSt10shared_ptrIN7testing8internal26ParameterizedTestSuiteInfoI26ErrorHandlingTestArgumentsE8TestInfoEEEvT_S9_
FNDA:2,_ZSt8_DestroyIN7testing8internal26ParameterizedTestSuiteInfoI21ErrorHandlingHelpTestE17InstantiationInfoEEvPT_
FNDA:2,_ZSt8_DestroyIN7testing8internal26ParameterizedTestSuiteInfoI26ErrorHandlingTestArgumentsE17InstantiationInfoEEvPT_
FNDA:2,_ZSt8_DestroyISt10shared_ptrIN7testing8internal26ParameterizedTestSuiteInfoI21ErrorHandlingHelpTestE8TestInfoEEEvPT_
FNDA:2,_ZSt8_DestroyISt10shared_ptrIN7testing8internal26ParameterizedTestSuiteInfoI26ErrorHandlingTestArgumentsE8TestInfoEEEvPT_
FNDA:2,_ZNSt12_Destroy_auxILb0EE9__destroyIPN7testing8internal26ParameterizedTestSuiteInfoI21ErrorHandlingHelpTestE17InstantiationInfoEEEvT_S9_
FNDA:2,_ZNSt12_Destroy_auxILb0EE9__destroyIPN7testing8internal26ParameterizedTestSuiteInfoI26ErrorHandlingTestArgumentsE17InstantiationInfoEEEvT_S9_
FNDA:2,_ZNSt12_Destroy_auxILb0EE9__destroyIPSt10shared_ptrIN7testing8internal26ParameterizedTestSuiteInfoI21ErrorHandlingHelpTestE8TestInfoEEEEvT_SB_
FNDA:2,_ZNSt12_Destroy_auxILb0EE9__destroyIPSt10shared_ptrIN7testing8internal26ParameterizedTestSuiteInfoI26ErrorHandlingTestArgumentsE8TestInfoEEEEvT_SB_
FNDA:4,_ZNSt12_Destroy_auxILb1EE9__destroyIP13ArgumentsCaseEEvT_S4_
FNDA:4,_ZNSt12_Destroy_auxILb1EE9__destroyIP9ErrorCaseEEvT_S4_
FNDA:4,_ZSt8_DestroyIP13ArgumentsCaseEvT_S2_
FNDA:4,_ZSt8_DestroyIP9ErrorCaseEvT_S2_
FNDA:2,_ZSt8_DestroyIPN7testing8internal26ParameterizedTestSuiteInfoI21ErrorHandlingHelpTestE17InstantiationInfoEEvT_S7_
FNDA:2,_ZSt8_DestroyIPN7testing8internal26ParameterizedTestSuiteInfoI26ErrorHandlingTestArgumentsE17InstantiationInfoEEvT_S7_
FNDA:2,_ZSt8_DestroyIPSt10shared_ptrIN7testing8internal26ParameterizedTestSuiteInfoI21ErrorHandlingHelpTestE8TestInfoEEEvT_S9_
FNDA:2,_ZSt8_DestroyIPSt10shared_ptrIN7testing8internal26ParameterizedTestSuiteInfoI26ErrorHandlingTestArgumentsE8TestInfoEEEvT_S9_
FNF:16
FNH:16
DA:146,8
DA:151,8
DA:153,8
DA:160,8
DA:162,16
DA:163,8
DA:164,8
DA:172,8
DA:182,16
DA:196,16
DA:197,16
LF:11
LH:11
end_of_record
TN:
SF:/usr/include/c++/13/bits/stl_function.h
FN:1166,1167,_ZNKSt9_IdentityINSt7__cxx1112basic_stringIcSt11char_traitsIcESaIcEEEEclERKS5_
FN:407,408,_ZNKSt4lessINSt7__cxx1112basic_stringIcSt11char_traitsIcESaIcEEEEclERKS5_S8_
FNDA:292,_ZNKSt9_IdentityINSt7__cxx1112basic_stringIcSt11char_traitsIcESaIcEEEEclERKS5_
FNDA:228,_ZNKSt4lessINSt7__cxx1112basic_stringIcSt11char_traitsIcESaIcEEEEclERKS5_S8_
FNF:2
FNH:2
DA:407,228
DA:408,228
DA:1166,292
DA:1167,292
LF:4
LH:4
end_of_record
TN:
SF:/usr/include/c++/13/bits/stl_iterator.h
FN:1076,1077,_ZN9__gnu_cxx17__normal_iteratorIPK13ArgumentsCaseSt6vectorIS1_SaIS1_EEEC2ERKS3_
FN:1076,1077,_ZN9__gnu_cxx17__normal_iteratorIPK9ErrorCaseSt6vectorIS1_SaIS1_EEEC2ERKS3_
FN:1076,1077,_ZN9__gnu_cxx17__normal_iteratorIPKSt10shared_ptrIN7testing8internal26ParameterizedTestSuiteInfoI21ErrorHandlingHelpTestE8TestInfoEESt6vectorIS8_SaIS8_EEEC2ERKSA_
FN:1076,1077,_ZN9__gnu_cxx17__normal_iteratorIPKSt10shared_ptrIN7testing8internal26ParameterizedTestSuiteInfoI26ErrorHandlingTestArgumentsE8TestInfoEESt6vectorIS8_SaIS8_EEEC2ERKSA_
FN:1076,1077,_ZN9__gnu_cxx17__normal_iteratorIPN7testing8internal26ParameterizedTestSuiteInfoI21ErrorHandlingHelpTestE17InstantiationInfoESt6vectorIS6_SaIS6_EEEC2ERKS7_
FN:1076,1077,_ZN9__gnu_cxx17__normal_iteratorIPN7testing8internal26ParameterizedTestSuiteInfoI26ErrorHandlingTestArgumentsE17InstantiationInfoESt6vectorIS6_SaIS6_EEEC2ERKS7_
FN:1076,1077,_ZN9__gnu_cxx17__normal_iteratorIPPN7testing8internal30ParameterizedTestSuiteInfoBaseESt6vectorIS4_SaIS4_EEEC2ERKS5_
FN:1076,1077,_ZN9__gnu_cxx17__normal_iteratorIPSt10shared_ptrIN7testing8internal26ParameterizedTestSuiteInfoI21ErrorHandlingHelpTestE8TestInfoEESt6vectorIS8_SaIS8_EEEC2ERKS9_
FN:1076,1077,_ZN9__gnu_cxx17__normal_iteratorIPSt10shared_ptrIN7testing8internal26ParameterizedTestSuiteInfoI26ErrorHandlingTestArgumentsE8TestInfoEESt6vectorIS8_SaIS8_EEEC2ERKS9_
FN:1099,1100,_ZNK9__gnu_cxx17__normal_iteratorIPK13ArgumentsCaseSt6vectorIS1_SaIS1_EEEdeEv
FN:1099,1100,_ZNK9__gnu_cxx17__normal_iteratorIPK9ErrorCaseSt6vectorIS1_SaIS1_EEEdeEv
FN:1099,1100,_ZNK9__gnu_cxx17__normal_iteratorIPN7testing8internal26ParameterizedTestSuiteInfoI21ErrorHandlingHelpTestE17InstantiationInfoESt6vectorIS6_SaIS6_EEEdeEv
FN:1099,1100,_ZNK9__gnu_cxx17__normal_iteratorIPN7testing8internal26ParameterizedTestSuiteInfoI26ErrorHandlingTestArgumentsE17InstantiationInfoESt6vectorIS6_SaIS6_EEEdeEv
FN:1099,1100,_ZNK9__gnu_cxx17__normal_iteratorIPPN7testing8internal30ParameterizedTestSuiteInfoBaseESt6vectorIS4_SaIS4_EEEdeEv
FN:1099,1100,_ZNK9__gnu_cxx17__normal_iteratorIPSt10shared_ptrIN7testing8internal26ParameterizedTestSuiteInfoI21ErrorHandlingHelpTestE8TestInfoEESt6vectorIS8_SaIS8_EEEdeEv
FN:1099,1100,_ZNK9__gnu_cxx17__normal_iteratorIPSt10shared_ptrIN7testing8internal26ParameterizedTestSuiteInfoI26ErrorHandlingTestArgumentsE8TestInfoEESt6vectorIS8_SaIS8_EEEdeEv
FN:1104,1105,_ZNK9__gnu_cxx17__normal_iteratorIPN7testing8internal26ParameterizedTestSuiteInfoI21ErrorHandlingHelpTestE17InstantiationInfoESt6vectorIS6_SaIS6_EEEptEv
FN:1104,1105,_ZNK9__gnu_cxx17__normal_iteratorIPN7testing8internal26ParameterizedTestSuiteInfoI26ErrorHandlingTestArgumentsE17InstantiationInfoESt6vectorIS6_SaIS6_EEEptEv
FN:1109,1113,_ZN9__gnu_cxx17__normal_iteratorIPK13ArgumentsCaseSt6vectorIS1_SaIS1_EEEppEv
FN:1109,1113,_ZN9__gnu_cxx17__normal_iteratorIPK9ErrorCaseSt6vectorIS1_SaIS1_EEEppEv
FN:1109,1113,_ZN9__gnu_cxx17__normal_iteratorIPN7testing8internal26ParameterizedTestSuiteInfoI21ErrorHandlingHelpTestE17InstantiationInfoESt6vectorIS6_SaIS6_EEEppEv
FN:1109,1113,_ZN9__gnu_cxx17__normal_iteratorIPN7testing8internal26ParameterizedTestSuiteInfoI26ErrorHandlingTestArgumentsE17InstantiationInfoESt6vectorIS6_SaIS6_EEEppEv
FN:1109,1113,_ZN9__gnu_cxx17__normal_iteratorIPPN7testing8internal30ParameterizedTestSuiteInfoBaseESt6vectorIS4_SaIS4_EEEppEv
FN:1109,1113,_ZN9__gnu_cxx17__normal_iteratorIPSt10shared_ptrIN7testing8internal26ParameterizedTestSuiteInfoI21ErrorHandlingHelpTestE8TestInfoEESt6vectorIS8_SaIS8_EEEppEv
FN:1109,1113,_ZN9__gnu_cxx17__normal_iteratorIPSt10shared_ptrIN7testing8internal26ParameterizedTestSuiteInfoI26ErrorHandlingTestArgumentsE8TestInfoEESt6vectorIS8_SaIS8_EEEppEv
FN:1157,1158,_ZNK9__gnu_cxx17__normal_iteratorIPN7testing8internal26ParameterizedTestSuiteInfoI21ErrorHandlingHelpTestE17InstantiationInfoESt6vectorIS6_SaIS6_EEEmiEl
FN:1157,1158,_ZNK9__gnu_cxx17__normal_iteratorIPN7testing8internal26ParameterizedTestSuiteInfoI26ErrorHandlingTestArgumentsE17InstantiationInfoESt6vectorIS6_SaIS6_EEEmiEl
FN:1157,1158,_ZNK9__gnu_cxx17__normal_iteratorIPPN7testing8internal30ParameterizedTestSuiteInfoBaseESt6vectorIS4_SaIS4_EEEmiEl
FN:1157,1158,_ZNK9__gnu_cxx17__normal_iteratorIPSt10shared_ptrIN7testing8internal26ParameterizedTestSuiteInfoI21ErrorHandlingHelpTestE8TestInfoEESt6vectorIS8_SaIS8_EEEmiEl
FN:1157,1158,_ZNK9__gnu_cxx17__normal_iteratorIPSt10shared_ptrIN7testing8internal26ParameterizedTestSuiteInfoI26ErrorHandlingTestArgumentsE8TestInfoEESt6vectorIS8_SaIS8_EEEmiEl
FN:1162,1163,_ZNK9__gnu_cxx17__normal_iteratorIPK13ArgumentsCaseSt6vectorIS1_SaIS1_EEE4baseEv
FN:1162,1163,_ZNK9__gnu_cxx17__normal_iteratorIPK9ErrorCaseSt6vectorIS1_SaIS1_EEE4baseEv
FN:1162,1163,_ZNK9__gnu_cxx17__normal_iteratorIPKSt10shared_ptrIN7testing8internal26ParameterizedTestSuiteInfoI21ErrorHandlingHelpTestE8TestInfoEESt6vectorIS8_SaIS8_EEE4baseEv
FN:1162,1163,_ZNK9__gnu_cxx17__normal_iteratorIPKSt10shared_ptrIN7testing8internal26ParameterizedTestSuiteInfoI26ErrorHandlingTestArgumentsE8TestInfoEESt6vectorIS8_SaIS8_EEE4baseEv
FN:1162,1163,_ZNK9__gnu_cxx17__normal_iteratorIPN7testing8internal26ParameterizedTestSuiteInfoI21ErrorHandlingHelpTestE17InstantiationInfoESt6vectorIS6_SaIS6_EEE4baseEv
FN:1162,1163,_ZNK9__gnu_cxx17__normal_iteratorIPN7testing8internal26ParameterizedTestSuiteInfoI26ErrorHandlingTestArgumentsE17InstantiationInfoESt6vectorIS6_SaIS6_EEE4baseEv
FN:1162,1163,_ZNK9__gnu_cxx17__normal_iteratorIPPN7testing8internal30ParameterizedTestSuiteInfoBaseESt6vectorIS4_SaIS4_EEE4baseEv
FN:1162,1163,_ZNK9__gnu_cxx17__normal_iteratorIPSt10shared_ptrIN7testing8internal26ParameterizedTestSuiteInfoI21ErrorHandlingHelpTestE8TestInfoEESt6vectorIS8_SaIS8_EEE4baseEv
FN:1162,1163,_ZNK9__gnu_cxx17__normal_iteratorIPSt10shared_ptrIN7testing8internal26ParameterizedTestSuiteInfoI26ErrorHandlingTestArgumentsE8TestInfoEESt6vectorIS8_SaIS8_EEE4baseEv
FN:1225,1228,_ZN9__gnu_cxxeqIPK13ArgumentsCaseSt6vectorIS1_SaIS1_EEEEbRKNS_17__normal_iteratorIT_T0_EESC_
FN:1225,1228,_ZN9__gnu_cxxeqIPK9ErrorCaseSt6vectorIS1_SaIS1_EEEEbRKNS_17__normal_iteratorIT_T0_EESC_
FN:1225,1228,_ZN9__gnu_cxxeqIPKSt10shared_ptrIN7testing8internal26ParameterizedTestSuiteInfoI21ErrorHandlingHelpTestE8TestInfoEESt6vectorIS8_SaIS8_EEEEbRKNS_17__normal_iteratorIT_T0_EESJ_
FN:1225,1228,_ZN9__gnu_cxxeqIPKSt10shared_ptrIN7testing8internal26ParameterizedTestSuiteInfoI26ErrorHandlingTestArgumentsE8TestInfoEESt6vectorIS8_SaIS8_EEEEbRKNS_17__normal_iteratorIT_T0_EESJ_
FN:1241,1244,_ZN9__gnu_cxxneIPN7testing8internal26ParameterizedTestSuiteInfoI21ErrorHandlingHelpTestE17InstantiationInfoESt6vectorIS6_SaIS6_EEEEbRKNS_17__normal_iteratorIT_T0_EESG_
FN:1241,1244,_ZN9__gnu_cxxneIPN7testing8internal26ParameterizedTestSuiteInfoI26ErrorHandlingTestArgumentsE17InstantiationInfoESt6vectorIS6_SaIS6_EEEEbRKNS_17__normal_iteratorIT_T0_EESG_
FN:1241,1244,_ZN9__gnu_cxxneIPPN7testing8internal30ParameterizedTestSuiteInfoBaseESt6vectorIS4_SaIS4_EEEEbRKNS_17__normal_iteratorIT_T0_EESE_
FN:1241,1244,_ZN9__gnu_cxxneIPSt10shared_ptrIN7testing8internal26ParameterizedTestSuiteInfoI21ErrorHandlingHelpTestE8TestInfoEESt6vectorIS8_SaIS8_EEEEbRKNS_17__normal_iteratorIT_T0_EESI_
FN:1241,1244,_ZN9__gnu_cxxneIPSt10shared_ptrIN7testing8internal26ParameterizedTestSuiteInfoI26ErrorHandlingTestArgumentsE8TestInfoEESt6vectorIS8_SaIS8_EEEEbRKNS_17__normal_iteratorIT_T0_EESI_
FN:1334,1337,_ZN9__gnu_cxxmiIPK13ArgumentsCaseSt6vectorIS1_SaIS1_EEEENS_17__normal_iteratorIT_T0_E15difference_typeERKSA_SD_
FN:1334,1337,_ZN9__gnu_cxxmiIPK9ErrorCaseSt6vectorIS1_SaIS1_EEEENS_17__normal_iteratorIT_T0_E15difference_typeERKSA_SD_
FN:1334,1337,_ZN9__gnu_cxxmiIPN7testing8internal26ParameterizedTestSuiteInfoI21ErrorHandlingHelpTestE17InstantiationInfoESt6vectorIS6_SaIS6_EEEENS_17__normal_iteratorIT_T0_E15difference_typeERKSE_SH_
FN:1334,1337,_ZN9__gnu_cxxmiIPN7testing8internal26ParameterizedTestSuiteInfoI26ErrorHandlingTestArgumentsE17InstantiationInfoESt6vectorIS6_SaIS6_EEEENS_17__normal_iteratorIT_T0_E15difference_typeERKSE_SH_
FN:1334,1337,_ZN9__gnu_cxxmiIPPN7testing8internal30ParameterizedTestSuiteInfoBaseESt6vectorIS4_SaIS4_EEEENS_17__normal_iteratorIT_T0_E15difference_typeERKSC_SF_
FN:1334,1337,_ZN9__gnu_cxxmiIPSt10shared_ptrIN7testing8internal26ParameterizedTestSuiteInfoI21ErrorHandlingHelpTestE8TestInfoEESt6vectorIS8_SaIS8_EEEENS_17__normal_iteratorIT_T0_E15difference_typeERKSG_SJ_
FN:1334,1337,_ZN9__gnu_cxxmiIPSt10shared_ptrIN7testing8internal26ParameterizedTestSuiteInfoI26ErrorHandlingTestArgumentsE8TestInfoEESt6vectorIS8_SaIS8_EEEENS_17__normal_iteratorIT_T0_E15difference_typeERKSG_SJ_
FN:1357,1359,_ZSt12__niter_baseIPK13ArgumentsCaseSt6vectorIS0_SaIS0_EEET_N9__gnu_cxx17__normal_iteratorIS6_T0_EE
FN:1357,1359,_ZSt12__niter_baseIPK9ErrorCaseSt6vectorIS0_SaIS0_EEET_N9__gnu_cxx17__normal_iteratorIS6_T0_EE
FNDA:28,_ZN9__gnu_cxx17__normal_iteratorIPK13ArgumentsCaseSt6vectorIS1_SaIS1_EEEC2ERKS3_
FNDA:22,_ZN9__gnu_cxx17__normal_iteratorIPK9ErrorCaseSt6vectorIS1_SaIS1_EEEC2ERKS3_
FNDA:0,_ZN9__gnu_cxx17__normal_iteratorIPKSt10shared_ptrIN7testing8internal26ParameterizedTestSuiteInfoI21ErrorHandlingHelpTestE8TestInfoEESt6vectorIS8_SaIS8_EEEC2ERKSA_
FNDA:0,_ZN9__gnu_cxx17__normal_iteratorIPKSt10shared_ptrIN7testing8internal26ParameterizedTestSuiteInfoI26ErrorHandlingTestArgumentsE8TestInfoEESt6vectorIS8_SaIS8_EEEC2ERKSA_
FNDA:14,_ZN9__gnu_cxx17__normal_iteratorIPN7testing8internal26ParameterizedTestSuiteInfoI21ErrorHandlingHelpTestE17InstantiationInfoESt6vectorIS6_SaIS6_EEEC2ERKS7_
FNDA:14,_ZN9__gnu_cxx17__normal_iteratorIPN7testing8internal26ParameterizedTestSuiteInfoI26ErrorHandlingTestArgumentsE17InstantiationInfoESt6vectorIS6_SaIS6_EEEC2ERKS7_
FNDA:32,_ZN9__gnu_cxx17__normal_iteratorIPPN7testing8internal30ParameterizedTestSuiteInfoBaseESt6vectorIS4_SaIS4_EEEC2ERKS5_
FNDA:14,_ZN9__gnu_cxx17__normal_iteratorIPSt10shared_ptrIN7testing8internal26ParameterizedTestSuiteInfoI21ErrorHandlingHelpTestE8TestInfoEESt6vectorIS8_SaIS8_EEEC2ERKS9_
FNDA:14,_ZN9__gnu_cxx17__normal_iteratorIPSt10shared_ptrIN7testing8internal26ParameterizedTestSuiteInfoI26ErrorHandlingTestArgumentsE8TestInfoEESt6vectorIS8_SaIS8_EEEC2ERKS9_
FNDA:20,_ZNK9__gnu_cxx17__normal_iteratorIPK13ArgumentsCaseSt6vectorIS1_SaIS1_EEEdeEv
FNDA:14,_ZNK9__gnu_cxx17__normal_iteratorIPK9ErrorCaseSt6vectorIS1_SaIS1_EEEdeEv
FNDA:2,_ZNK9__gnu_cxx17__normal_iteratorIPN7testing8internal26ParameterizedTestSuiteInfoI21ErrorHandlingHelpTestE17InstantiationInfoESt6vectorIS6_SaIS6_EEEdeEv
FNDA:2,_ZNK9__gnu_cxx17__normal_iteratorIPN7testing8internal26ParameterizedTestSuiteInfoI26ErrorHandlingTestArgumentsE17InstantiationInfoESt6vectorIS6_SaIS6_EEEdeEv
FNDA:12,_ZNK9__gnu_cxx17__normal_iteratorIPPN7testing8internal30ParameterizedTestSuiteInfoBaseESt6vectorIS4_SaIS4_EEEdeEv
FNDA:4,_ZNK9__gnu_cxx17__normal_iteratorIPSt10shared_ptrIN7testing8internal26ParameterizedTestSuiteInfoI21ErrorHandlingHelpTestE8TestInfoEESt6vectorIS8_SaIS8_EEEdeEv
FNDA:4,_ZNK9__gnu_cxx17__normal_iteratorIPSt10shared_ptrIN7testing8internal26ParameterizedTestSuiteInfoI26ErrorHandlingTestArgumentsE8TestInfoEESt6vectorIS8_SaIS8_EEEdeEv
FNDA:10,_ZNK9__gnu_cxx17__normal_iteratorIPN7testing8internal26ParameterizedTestSuiteInfoI21ErrorHandlingHelpTestE17InstantiationInfoESt6vectorIS6_SaIS6_EEEptEv
FNDA:10,_ZNK9__gnu_cxx17__normal_iteratorIPN7testing8internal26ParameterizedTestSuiteInfoI26ErrorHandlingTestArgumentsE17InstantiationInfoESt6vectorIS6_SaIS6_EEEptEv
FNDA:20,_ZN9__gnu_cxx17__normal_iteratorIPK13ArgumentsCaseSt6vectorIS1_SaIS1_EEEppEv
FNDA:14,_ZN9__gnu_cxx17__normal_iteratorIPK9ErrorCaseSt6vectorIS1_SaIS1_EEEppEv
FNDA:2,_ZN9__gnu_cxx17__normal_iteratorIPN7testing8internal26ParameterizedTestSuiteInfoI21ErrorHandlingHelpTestE17InstantiationInfoESt6vectorIS6_SaIS6_EEEppEv
FNDA:2,_ZN9__gnu_cxx17__normal_iteratorIPN7testing8internal26ParameterizedTestSuiteInfoI26ErrorHandlingTestArgumentsE17InstantiationInfoESt6vectorIS6_SaIS6_EEEppEv
FNDA:4,_ZN9__gnu_cxx17__normal_iteratorIPPN7testing8internal30ParameterizedTestSuiteInfoBaseESt6vectorIS4_SaIS4_EEEppEv
FNDA:2,_ZN9__gnu_cxx17__normal_iteratorIPSt10shared_ptrIN7testing8internal26ParameterizedTestSuiteInfoI21ErrorHandlingHelpTestE8TestInfoEESt6vectorIS8_SaIS8_EEEppEv
FNDA:2,_ZN9__gnu_cxx17__normal_iteratorIPSt10shared_ptrIN7testing8internal26ParameterizedTestSuiteInfoI26ErrorHandlingTestArgumentsE8TestInfoEESt6vectorIS8_SaIS8_EEEppEv
FNDA:2,_ZNK9__gnu_cxx17__normal_iteratorIPN7testing8internal26ParameterizedTestSuiteInfoI21ErrorHandlingHelpTestE17InstantiationInfoESt6vectorIS6_SaIS6_EEEmiEl
FNDA:2,_ZNK9__gnu_cxx17__normal_iteratorIPN7testing8internal26ParameterizedTestSuiteInfoI26ErrorHandlingTestArgumentsE17InstantiationInfoESt6vectorIS6_SaIS6_EEEmiEl
FNDA:4,_ZNK9__gnu_cxx17__normal_iteratorIPPN7testing8internal30ParameterizedTestSuiteInfoBaseESt6vectorIS4_SaIS4_EEEmiEl
FNDA:2,_ZNK9__gnu_cxx17__normal_iteratorIPSt10shared_ptrIN7testing8internal26ParameterizedTestSuiteInfoI21ErrorHandlingHelpTestE8TestInfoEESt6vectorIS8_SaIS8_EEEmiEl
FNDA:2,_ZNK9__gnu_cxx17__normal_iteratorIPSt10shared_ptrIN7testing8internal26ParameterizedTestSuiteInfoI26ErrorHandlingTestArgumentsE8TestInfoEESt6vectorIS8_SaIS8_EEEmiEl
FNDA:52,_ZNK9__gnu_cxx17__normal_iteratorIPK13ArgumentsCaseSt6vectorIS1_SaIS1_EEE4baseEv
FNDA:40,_ZNK9__gnu_cxx17__normal_iteratorIPK9ErrorCaseSt6vectorIS1_SaIS1_EEE4baseEv
FNDA:0,_ZNK9__gnu_cxx17__normal_iteratorIPKSt10shared_ptrIN7testing8internal26ParameterizedTestSuiteInfoI21ErrorHandlingHelpTestE8TestInfoEESt6vectorIS8_SaIS8_EEE4baseEv
FNDA:0,_ZNK9__gnu_cxx17__normal_iteratorIPKSt10shared_ptrIN7testing8internal26ParameterizedTestSuiteInfoI26ErrorHandlingTestArgumentsE8TestInfoEESt6vectorIS8_SaIS8_EEE4baseEv
FNDA:16,_ZNK9__gnu_cxx17__normal_iteratorIPN7testing8internal26ParameterizedTestSuiteInfoI21ErrorHandlingHelpTestE17InstantiationInfoESt6vectorIS6_SaIS6_EEE4baseEv
FNDA:16,_ZNK9__gnu_cxx17__normal_iteratorIPN7testing8internal26ParameterizedTestSuiteInfoI26ErrorHandlingTestArgumentsE17InstantiationInfoESt6vectorIS6_SaIS6_EEE4baseEv
FNDA:40,_ZNK9__gnu_cxx17__normal_iteratorIPPN7testing8internal30ParameterizedTestSuiteInfoBaseESt6vectorIS4_SaIS4_EEE4baseEv
FNDA:16,_ZNK9__gnu_cxx17__normal_iteratorIPSt10shared_ptrIN7testing8internal26ParameterizedTestSuiteInfoI21ErrorHandlingHelpTestE8TestInfoEESt6vectorIS8_SaIS8_EEE4baseEv
FNDA:16,_ZNK9__gnu_cxx17__normal_iteratorIPSt10shared_ptrIN7testing8internal26ParameterizedTestSuiteInfoI26ErrorHandlingTestArgumentsE8TestInfoEESt6vectorIS8_SaIS8_EEE4baseEv
FNDA:22,_ZN9__gnu_cxxeqIPK13ArgumentsCaseSt6vectorIS1_SaIS1_EEEEbRKNS_17__normal_iteratorIT_T0_EESC_
FNDA:16,_ZN9__gnu_cxxeqIPK9ErrorCaseSt6vectorIS1_SaIS1_EEEEbRKNS_17__normal_iteratorIT_T0_EESC_
FNDA:0,_ZN9__gnu_cxxeqIPKSt10shared_ptrIN7testing8internal26ParameterizedTestSuiteInfoI21ErrorHandlingHelpTestE8TestInfoEESt6vectorIS8_SaIS8_EEEEbRKNS_17__normal_iteratorIT_T0_EESJ_
FNDA:0,_ZN9__gnu_cxxeqIPKSt10shared_ptrIN7testing8internal26ParameterizedTestSuiteInfoI26ErrorHandlingTestArgumentsE8TestInfoEESt6vectorIS8_SaIS8_EEEEbRKNS_17__normal_iteratorIT_T0_EESJ_
FNDA:4,_ZN9__gnu_cxxneIPN7testing8internal26ParameterizedTestSuiteInfoI21ErrorHandlingHelpTestE17InstantiationInfoESt6vectorIS6_SaIS6_EEEEbRKNS_17__normal_iteratorIT_T0_EESG_
FNDA:4,_ZN9__gnu_cxxneIPN7testing8internal26ParameterizedTestSuiteInfoI26ErrorHandlingTestArgumentsE17InstantiationInfoESt6vectorIS6_SaIS6_EEEEbRKNS_17__normal_iteratorIT_T0_EESG_
FNDA:12,_ZN9__gnu_cxxneIPPN7testing8internal30ParameterizedTestSuiteInfoBaseESt6vectorIS4_SaIS4_EEEEbRKNS_17__normal_iteratorIT_T0_EESE_
FNDA:4,_ZN9__gnu_cxxneIPSt10shared_ptrIN7testing8internal26ParameterizedTestSuiteInfoI21ErrorHandlingHelpTestE8TestInfoEESt6vectorIS8_SaIS8_EEEEbRKNS_17__normal_iteratorIT_T0_EESI_
FNDA:4,_ZN9__gnu_cxxneIPSt10shared_ptrIN7testing8internal26ParameterizedTestSuiteInfoI26ErrorHandlingTestArgumentsE8TestInfoEESt6vectorIS8_SaIS8_EEEEbRKNS_17__normal_iteratorIT_T0_EESI_
FNDA:2,_ZN9__gnu_cxxmiIPK13ArgumentsCaseSt6vectorIS1_SaIS1_EEEENS_17__normal_iteratorIT_T0_E15difference_typeERKSA_SD_
FNDA:2,_ZN9__gnu_cxxmiIPK9ErrorCaseSt6vectorIS1_SaIS1_EEEENS_17__normal_iteratorIT_T0_E15difference_typeERKSA_SD_
FNDA:2,_ZN9__gnu_cxxmiIPN7testing8internal26ParameterizedTestSuiteInfoI21ErrorHandlingHelpTestE17InstantiationInfoESt6vectorIS6_SaIS6_EEEENS_17__normal_iteratorIT_T0_E15difference_typeERKSE_SH_
FNDA:2,_ZN9__gnu_cxxmiIPN7testing8internal26ParameterizedTestSuiteInfoI26ErrorHandlingTestArgumentsE17InstantiationInfoESt6vectorIS6_SaIS6_EEEENS_17__normal_iteratorIT_T0_E15difference_typeERKSE_SH_
FNDA:4,_ZN9__gnu_cxxmiIPPN7testing8internal30ParameterizedTestSuiteInfoBaseESt6vectorIS4_SaIS4_EEEENS_17__normal_iteratorIT_T0_E15difference_typeERKSC_SF_
FNDA:2,_ZN9__gnu_cxxmiIPSt10shared_ptrIN7testing8internal26ParameterizedTestSuiteInfoI21ErrorHandlingHelpTestE8TestInfoEESt6vectorIS8_SaIS8_EEEENS_17__normal_iteratorIT_T0_E15difference_typeERKSG_SJ_
FNDA:2,_ZN9__gnu_cxxmiIPSt10shared_ptrIN7testing8internal26ParameterizedTestSuiteInfoI26ErrorHandlingTestArgumentsE8TestInfoEESt6vectorIS8_SaIS8_EEEENS_17__normal_iteratorIT_T0_E15difference_typeERKSG_SJ_
FNDA:4,_ZSt12__niter_baseIPK13ArgumentsCaseSt6vectorIS0_SaIS0_EEET_N9__gnu_cxx17__normal_iteratorIS6_T0_EE
FNDA:4,_ZSt12__niter_baseIPK9ErrorCaseSt6vectorIS0_SaIS0_EEET_N9__gnu_cxx17__normal_iteratorIS6_T0_EE
FNF:57
FNH:51
DA:1076,138
DA:1077,138
DA:1099,58
DA:1100,58
DA:1104,20
DA:1105,20
DA:1109,46
DA:1111,46
DA:1112,46
DA:1157,12
DA:1158,12
DA:1162,196
DA:1163,196
DA:1225,38
DA:1228,38
DA:1241,28
DA:1244,28
DA:1334,16
DA:1337,16
DA:1357,8
DA:1359,8
LF:21
LH:21
end_of_record
TN:
SF:/usr/include/c++/13/bits/stl_iterator_base_funcs.h
FNF:0
FNH:0
DA:106,93
DA:151,190
DA:152,194
LF:3
LH:3
end_of_record
TN:
SF:/usr/include/c++/13/bits/stl_iterator_base_types.h
FNF:0
FNH:0
DA:240,101
LF:1
LH:1
end_of_record
TN:
SF:/usr/include/c++/13/bits/stl_pair.h
FN:558,559,_ZNSt4pairIPSt18_Rb_tree_node_baseS1_EC2IS1_S1_Lb1EEERKS1_S5_
FN:687,689,_ZNSt4pairIPSt18_Rb_tree_node_baseS1_EC2IRPSt13_Rb_tree_nodeINSt7__cxx1112basic_stringIcSt11char_traitsIcESaIcEEEERS1_Lb1EEEOT_OT0_
FN:687,689,_ZNSt4pairISt17_Rb_tree_iteratorINSt7__cxx1112basic_stringIcSt11char_traitsIcESaIcEEEEbEC2IS7_bLb1EEEOT_OT0_
FN:687,689,_ZNSt4pairISt23_Rb_tree_const_iteratorINSt7__cxx1112basic_stringIcSt11char_traitsIcESaIcEEEEbEC2IRSt17_Rb_tree_iteratorIS6_ERbLb1EEEOT_OT0_
FNDA:0,_ZNSt4pairIPSt18_Rb_tree_node_baseS1_EC2IS1_S1_Lb1EEERKS1_S5_
FNDA:34,_ZNSt4pairIPSt18_Rb_tree_node_baseS1_EC2IRPSt13_Rb_tree_nodeINSt7__cxx1112basic_stringIcSt11char_traitsIcESaIcEEEERS1_Lb1EEEOT_OT0_
FNDA:34,_ZNSt4pairISt17_Rb_tree_iteratorINSt7__cxx1112basic_stringIcSt11char_traitsIcESaIcEEEEbEC2IS7_bLb1EEEOT_OT0_
FNDA:34,_ZNSt4pairISt23_Rb_tree_const_iteratorINSt7__cxx1112basic_stringIcSt11char_traitsIcESaIcEEEEbEC2IRSt17_Rb_tree_iteratorIS6_ERbLb1EEEOT_OT0_
FNF:4
FNH:3
DA:558,0
DA:559,0
DA:687,102
DA:688,102
DA:689,102
LF:5
LH:3
end_of_record
TN:
SF:/usr/include/c++/13/bits/stl_set.h
FN:169,169,_ZNSt3setINSt7__cxx1112basic_stringIcSt11char_traitsIcESaIcEEESt4lessIS5_ESaIS5_EEC2Ev
FN:283,283,_ZNSt3setINSt7__cxx1112basic_stringIcSt11char_traitsIcESaIcEEESt4lessIS5_ESaIS5_EED2Ev
FN:511,516,_ZNSt3setINSt7__cxx1112basic_stringIcSt11char_traitsIcESaIcEEESt4lessIS5_ESaIS5_EE6insertERKS5_
FN:750,751,_ZNKSt3setINSt7__cxx1112basic_stringIcSt11char_traitsIcESaIcEEESt4lessIS5_ESaIS5_EE5countERKS5_
FNDA:4,_ZNSt3setINSt7__cxx1112basic_stringIcSt11char_traitsIcESaIcEEESt4lessIS5_ESaIS5_EEC2Ev
FNDA:4,_ZNSt3setINSt7__cxx1112basic_stringIcSt11char_traitsIcESaIcEEESt4lessIS5_ESaIS5_EED2Ev
FNDA:34,_ZNSt3setINSt7__cxx1112basic_stringIcSt11char_traitsIcESaIcEEESt4lessIS5_ESaIS5_EE6insertERKS5_
FNDA:34,_ZNKSt3setINSt7__cxx1112basic_stringIcSt11char_traitsIcESaIcEEESt4lessIS5_ESaIS5_EE5countERKS5_
FNF:4
FNH:4
DA:169,4
DA:283,4
DA:511,34
DA:514,34
DA:515,34
DA:750,34
DA:751,34
LF:7
LH:7
end_of_record
TN:
SF:/usr/include/c++/13/bits/stl_tree.h
FN:1009,1010,_ZNKSt8_Rb_treeINSt7__cxx1112basic_stringIcSt11char_traitsIcESaIcEEES5_St9_IdentityIS5_ESt4lessIS5_ESaIS5_EE3endEv
FN:146,150,_ZNSt20_Rb_tree_key_compareISt4lessINSt7__cxx1112basic_stringIcSt11char_traitsIcESaIcEEEEEC2Ev
FN:173,177,_ZNSt15_Rb_tree_headerC2Ev
FN:1818,1837,_ZNSt8_Rb_treeINSt7__cxx1112basic_stringIcSt11char_traitsIcESaIcEEES5_St9_IdentityIS5_ESt4lessIS5_ESaIS5_EE10_M_insert_IRKS5_NSB_11_Alloc_nodeEEESt17_Rb_tree_iteratorIS5_EPSt18_Rb_tree_node_baseSJ_OT_RT0_
FN:1930,1941,_ZNSt8_Rb_treeINSt7__cxx1112basic_stringIcSt11char_traitsIcESaIcEEES5_St9_IdentityIS5_ESt4lessIS5_ESaIS5_EE8_M_eraseEPSt13_Rb_tree_nodeIS5_E
FN:1963,1973,_ZNKSt8_Rb_treeINSt7__cxx1112basic_stringIcSt11char_traitsIcESaIcEEES5_St9_IdentityIS5_ESt4lessIS5_ESaIS5_EE14_M_lower_boundEPKSt13_Rb_tree_nodeIS5_EPKSt18_Rb_tree_node_baseRKS5_
FN:206,212,_ZNSt15_Rb_tree_header8_M_resetEv
FN:2108,2132,_ZNSt8_Rb_treeINSt7__cxx1112basic_stringIcSt11char_traitsIcESaIcEEES5_St9_IdentityIS5_ESt4lessIS5_ESaIS5_EE24_M_get_insert_unique_posERKS5_
FN:2162,2182,_ZNSt8_Rb_treeINSt7__cxx1112basic_stringIcSt11char_traitsIcESaIcEEES5_St9_IdentityIS5_ESt4lessIS5_ESaIS5_EE16_M_insert_uniqueIRKS5_EESt4pairISt17_Rb_tree_iteratorIS5_EbEOT_
FN:234,235,_ZNSt13_Rb_tree_nodeINSt7__cxx1112basic_stringIcSt11char_traitsIcESaIcEEEE9_M_valptrEv
FN:238,239,_ZNKSt13_Rb_tree_nodeINSt7__cxx1112basic_stringIcSt11char_traitsIcESaIcEEEE9_M_valptrEv
FN:2542,2549,_ZNKSt8_Rb_treeINSt7__cxx1112basic_stringIcSt11char_traitsIcESaIcEEES5_St9_IdentityIS5_ESt4lessIS5_ESaIS5_EE4findERKS5_
FN:273,274,_ZNSt17_Rb_tree_iteratorINSt7__cxx1112basic_stringIcSt11char_traitsIcESaIcEEEEC2EPSt18_Rb_tree_node_base
FN:300,304,_ZNSt17_Rb_tree_iteratorINSt7__cxx1112basic_stringIcSt11char_traitsIcESaIcEEEEmmEv
FN:315,316,_ZSteqRKSt17_Rb_tree_iteratorINSt7__cxx1112basic_stringIcSt11char_traitsIcESaIcEEEES8_
FN:347,348,_ZNSt23_Rb_tree_const_iteratorINSt7__cxx1112basic_stringIcSt11char_traitsIcESaIcEEEEC2EPKSt18_Rb_tree_node_base
FN:350,351,_ZNSt23_Rb_tree_const_iteratorINSt7__cxx1112basic_stringIcSt11char_traitsIcESaIcEEEEC2ERKSt17_Rb_tree_iteratorIS5_E
FN:396,397,_ZSteqRKSt23_Rb_tree_const_iteratorINSt7__cxx1112basic_stringIcSt11char_traitsIcESaIcEEEES8_
FN:525,526,_ZNSt8_Rb_treeINSt7__cxx1112basic_stringIcSt11char_traitsIcESaIcEEES5_St9_IdentityIS5_ESt4lessIS5_ESaIS5_EE11_Alloc_nodeC2ERSB_
FN:530,531,_ZNKSt8_Rb_treeINSt7__cxx1112basic_stringIcSt11char_traitsIcESaIcEEES5_St9_IdentityIS5_ESt4lessIS5_ESaIS5_EE11_Alloc_nodeclIRKS5_EEPSt13_Rb_tree_nodeIS5_EOT_
FN:549,550,_ZNSt8_Rb_treeINSt7__cxx1112basic_stringIcSt11char_traitsIcESaIcEEES5_St9_IdentityIS5_ESt4lessIS5_ESaIS5_EE21_M_get_Node_allocatorEv
FN:562,563,_ZNSt8_Rb_treeINSt7__cxx1112basic_stringIcSt11char_traitsIcESaIcEEES5_St9_IdentityIS5_ESt4lessIS5_ESaIS5_EE11_M_get_nodeEv
FN:566,567,_ZNSt8_Rb_treeINSt7__cxx1112basic_stringIcSt11char_traitsIcESaIcEEES5_St9_IdentityIS5_ESt4lessIS5_ESaIS5_EE11_M_put_nodeEPSt13_Rb_tree_nodeIS5_E
FN:592,607,_ZNSt8_Rb_treeINSt7__cxx1112basic_stringIcSt11char_traitsIcESaIcEEES5_St9_IdentityIS5_ESt4lessIS5_ESaIS5_EE17_M_construct_nodeIJRKS5_EEEvPSt13_Rb_tree_nodeIS5_EDpOT_
FN:611,616,_ZNSt8_Rb_treeINSt7__cxx1112basic_stringIcSt11char_traitsIcESaIcEEES5_St9_IdentityIS5_ESt4lessIS5_ESaIS5_EE14_M_create_nodeIJRKS5_EEEPSt13_Rb_tree_nodeIS5_EDpOT_
FN:620,628,_ZNSt8_Rb_treeINSt7__cxx1112basic_stringIcSt11char_traitsIcESaIcEEES5_St9_IdentityIS5_ESt4lessIS5_ESaIS5_EE15_M_destroy_nodeEPSt13_Rb_tree_nodeIS5_E
FN:631,635,_ZNSt8_Rb_treeINSt7__cxx1112basic_stringIcSt11char_traitsIcESaIcEEES5_St9_IdentityIS5_ESt4lessIS5_ESaIS5_EE12_M_drop_nodeEPSt13_Rb_tree_nodeIS5_E
FN:669,674,_ZNSt8_Rb_treeINSt7__cxx1112basic_stringIcSt11char_traitsIcESaIcEEES5_St9_IdentityIS5_ESt4lessIS5_ESaIS5_EE13_Rb_tree_implIS9_Lb1EEC2Ev
FN:736,737,_ZNKSt8_Rb_treeINSt7__cxx1112basic_stringIcSt11char_traitsIcESaIcEEES5_St9_IdentityIS5_ESt4lessIS5_ESaIS5_EE9_M_mbeginEv
FN:740,741,_ZNSt8_Rb_treeINSt7__cxx1112basic_stringIcSt11char_traitsIcESaIcEEES5_St9_IdentityIS5_ESt4lessIS5_ESaIS5_EE8_M_beginEv
FN:744,748,_ZNKSt8_Rb_treeINSt7__cxx1112basic_stringIcSt11char_traitsIcESaIcEEES5_St9_IdentityIS5_ESt4lessIS5_ESaIS5_EE8_M_beginEv
FN:751,752,_ZNSt8_Rb_treeINSt7__cxx1112basic_stringIcSt11char_traitsIcESaIcEEES5_St9_IdentityIS5_ESt4lessIS5_ESaIS5_EE6_M_endEv
FN:755,756,_ZNKSt8_Rb_treeINSt7__cxx1112basic_stringIcSt11char_traitsIcESaIcEEES5_St9_IdentityIS5_ESt4lessIS5_ESaIS5_EE6_M_endEv
FN:759,778,_ZNSt8_Rb_treeINSt7__cxx1112basic_stringIcSt11char_traitsIcESaIcEEES5_St9_IdentityIS5_ESt4lessIS5_ESaIS5_EE6_S_keyEPKSt13_Rb_tree_nodeIS5_E
FN:781,782,_ZNSt8_Rb_treeINSt7__cxx1112basic_stringIcSt11char_traitsIcESaIcEEES5_St9_IdentityIS5_ESt4lessIS5_ESaIS5_EE7_S_leftEPSt18_Rb_tree_node_base
FN:785,786,_ZNSt8_Rb_treeINSt7__cxx1112basic_stringIcSt11char_traitsIcESaIcEEES5_St9_IdentityIS5_ESt4lessIS5_ESaIS5_EE7_S_leftEPKSt18_Rb_tree_node_base
FN:789,790,_ZNSt8_Rb_treeINSt7__cxx1112basic_stringIcSt11char_traitsIcESaIcEEES5_St9_IdentityIS5_ESt4lessIS5_ESaIS5_EE8_S_rightEPSt18_Rb_tree_node_base
FN:793,794,_ZNSt8_Rb_treeINSt7__cxx1112basic_stringIcSt11char_traitsIcESaIcEEES5_St9_IdentityIS5_ESt4lessIS5_ESaIS5_EE8_S_rightEPKSt18_Rb_tree_node_base
FN:797,798,_ZNSt8_Rb_treeINSt7__cxx1112basic_stringIcSt11char_traitsIcESaIcEEES5_St9_IdentityIS5_ESt4lessIS5_ESaIS5_EE6_S_keyEPKSt18_Rb_tree_node_base
FN:930,930,_ZNSt8_Rb_treeINSt7__cxx1112basic_stringIcSt11char_traitsIcESaIcEEES5_St9_IdentityIS5_ESt4lessIS5_ESaIS5_EEC2Ev
FN:985,986,_ZNSt8_Rb_treeINSt7__cxx1112basic_stringIcSt11char_traitsIcESaIcEEES5_St9_IdentityIS5_ESt4lessIS5_ESaIS5_EED2Ev
FN:997,998,_ZNSt8_Rb_treeINSt7__cxx1112basic_stringIcSt11char_traitsIcESaIcEEES5_St9_IdentityIS5_ESt4lessIS5_ESaIS5_EE5beginEv
FNDA:102,_ZNKSt8_Rb_treeINSt7__cxx1112basic_stringIcSt11char_traitsIcESaIcEEES5_St9_IdentityIS5_ESt4lessIS5_ESaIS5_EE3endEv
FNDA:4,_ZNSt20_Rb_tree_key_compareISt4lessINSt7__cxx1112basic_stringIcSt11char_traitsIcESaIcEEEEEC2Ev
FNDA:4,_ZNSt15_Rb_tree_headerC2Ev
FNDA:34,_ZNSt8_Rb_treeINSt7__cxx1112basic_stringIcSt11char_traitsIcESaIcEEES5_St9_IdentityIS5_ESt4lessIS5_ESaIS5_EE10_M_insert_IRKS5_NSB_11_Alloc_nodeEEESt17_Rb_tree_iteratorIS5_EPSt18_Rb_tree_node_baseSJ_OT_RT0_
FNDA:38,_ZNSt8_Rb_treeINSt7__cxx1112basic_stringIcSt11char_traitsIcESaIcEEES5_St9_IdentityIS5_ESt4lessIS5_ESaIS5_EE8_M_eraseEPSt13_Rb_tree_nodeIS5_E
FNDA:34,_ZNKSt8_Rb_treeINSt7__cxx1112basic_stringIcSt11char_traitsIcESaIcEEES5_St9_IdentityIS5_ESt4lessIS5_ESaIS5_EE14_M_lower_boundEPKSt13_Rb_tree_nodeIS5_EPKSt18_Rb_tree_node_baseRKS5_
FNDA:4,_ZNSt15_Rb_tree_header8_M_resetEv
FNDA:34,_ZNSt8_Rb_treeINSt7__cxx1112basic_stringIcSt11char_traitsIcESaIcEEES5_St9_IdentityIS5_ESt4lessIS5_ESaIS5_EE24_M_get_insert_unique_posERKS5_
FNDA:34,_ZNSt8_Rb_treeINSt7__cxx1112basic_stringIcSt11char_traitsIcESaIcEEES5_St9_IdentityIS5_ESt4lessIS5_ESaIS5_EE16_M_insert_uniqueIRKS5_EESt4pairISt17_Rb_tree_iteratorIS5_EbEOT_
FNDA:68,_ZNSt13_Rb_tree_nodeINSt7__cxx1112basic_stringIcSt11char_traitsIcESaIcEEEE9_M_valptrEv
FNDA:228,_ZNKSt13_Rb_tree_nodeINSt7__cxx1112basic_stringIcSt11char_traitsIcESaIcEEEE9_M_valptrEv
FNDA:34,_ZNKSt8_Rb_treeINSt7__cxx1112basic_stringIcSt11char_traitsIcESaIcEEES5_St9_IdentityIS5_ESt4lessIS5_ESaIS5_EE4findERKS5_
FNDA:72,_ZNSt17_Rb_tree_iteratorINSt7__cxx1112basic_stringIcSt11char_traitsIcESaIcEEEEC2EPSt18_Rb_tree_node_base
FNDA:0,_ZNSt17_Rb_tree_iteratorINSt7__cxx1112basic_stringIcSt11char_traitsIcESaIcEEEEmmEv
FNDA:4,_ZSteqRKSt17_Rb_tree_iteratorINSt7__cxx1112basic_stringIcSt11char_traitsIcESaIcEEEES8_
FNDA:136,_ZNSt23_Rb_tree_const_iteratorINSt7__cxx1112basic_stringIcSt11char_traitsIcESaIcEEEEC2EPKSt18_Rb_tree_node_base
FNDA:34,_ZNSt23_Rb_tree_const_iteratorINSt7__cxx1112basic_stringIcSt11char_traitsIcESaIcEEEEC2ERKSt17_Rb_tree_iteratorIS5_E
FNDA:68,_ZSteqRKSt23_Rb_tree_const_iteratorINSt7__cxx1112basic_stringIcSt11char_traitsIcESaIcEEEES8_
FNDA:34,_ZNSt8_Rb_treeINSt7__cxx1112basic_stringIcSt11char_traitsIcESaIcEEES5_St9_IdentityIS5_ESt4lessIS5_ESaIS5_EE11_Alloc_nodeC2ERSB_
FNDA:34,_ZNKSt8_Rb_treeINSt7__cxx1112basic_stringIcSt11char_traitsIcESaIcEEES5_St9_IdentityIS5_ESt4lessIS5_ESaIS5_EE11_Alloc_nodeclIRKS5_EEPSt13_Rb_tree_nodeIS5_EOT_
FNDA:136,_ZNSt8_Rb_treeINSt7__cxx1112basic_stringIcSt11char_traitsIcESaIcEEES5_St9_IdentityIS5_ESt4lessIS5_ESaIS5_EE21_M_get_Node_allocatorEv
FNDA:34,_ZNSt8_Rb_treeINSt7__cxx1112basic_stringIcSt11char_traitsIcESaIcEEES5_St9_IdentityIS5_ESt4lessIS5_ESaIS5_EE11_M_get_nodeEv
FNDA:34,_ZNSt8_Rb_treeINSt7__cxx1112basic_stringIcSt11char_traitsIcESaIcEEES5_St9_IdentityIS5_ESt4lessIS5_ESaIS5_EE11_M_put_nodeEPSt13_Rb_tree_nodeIS5_E
FNDA:34,_ZNSt8_Rb_treeINSt7__cxx1112basic_stringIcSt11char_traitsIcESaIcEEES5_St9_IdentityIS5_ESt4lessIS5_ESaIS5_EE17_M_construct_nodeIJRKS5_EEEvPSt13_Rb_tree_nodeIS5_EDpOT_
FNDA:34,_ZNSt8_Rb_treeINSt7__cxx1112basic_stringIcSt11char_traitsIcESaIcEEES5_St9_IdentityIS5_ESt4lessIS5_ESaIS5_EE14_M_create_nodeIJRKS5_EEEPSt13_Rb_tree_nodeIS5_EDpOT_
FNDA:34,_ZNSt8_Rb_treeINSt7__cxx1112basic_stringIcSt11char_traitsIcESaIcEEES5_St9_IdentityIS5_ESt4lessIS5_ESaIS5_EE15_M_destroy_nodeEPSt13_Rb_tree_nodeIS5_E
FNDA:34,_ZNSt8_Rb_treeINSt7__cxx1112basic_stringIcSt11char_traitsIcESaIcEEES5_St9_IdentityIS5_ESt4lessIS5_ESaIS5_EE12_M_drop_nodeEPSt13_Rb_tree_nodeIS5_E
FNDA:4,_ZNSt8_Rb_treeINSt7__cxx1112basic_stringIcSt11char_traitsIcESaIcEEES5_St9_IdentityIS5_ESt4lessIS5_ESaIS5_EE13_Rb_tree_implIS9_Lb1EEC2Ev
FNDA:38,_ZNKSt8_Rb_treeINSt7__cxx1112basic_stringIcSt11char_traitsIcESaIcEEES5_St9_IdentityIS5_ESt4lessIS5_ESaIS5_EE9_M_mbeginEv
FNDA:38,_ZNSt8_Rb_treeINSt7__cxx1112basic_stringIcSt11char_traitsIcESaIcEEES5_St9_IdentityIS5_ESt4lessIS5_ESaIS5_EE8_M_beginEv
FNDA:34,_ZNKSt8_Rb_treeINSt7__cxx1112basic_stringIcSt11char_traitsIcESaIcEEES5_St9_IdentityIS5_ESt4lessIS5_ESaIS5_EE8_M_beginEv
FNDA:68,_ZNSt8_Rb_treeINSt7__cxx1112basic_stringIcSt11char_traitsIcESaIcEEES5_St9_IdentityIS5_ESt4lessIS5_ESaIS5_EE6_M_endEv
FNDA:34,_ZNKSt8_Rb_treeINSt7__cxx1112basic_stringIcSt11char_traitsIcESaIcEEES5_St9_IdentityIS5_ESt4lessIS5_ESaIS5_EE6_M_endEv
FNDA:228,_ZNSt8_Rb_treeINSt7__cxx1112basic_stringIcSt11char_traitsIcESaIcEEES5_St9_IdentityIS5_ESt4lessIS5_ESaIS5_EE6_S_keyEPKSt13_Rb_tree_nodeIS5_E
FNDA:34,_ZNSt8_Rb_treeINSt7__cxx1112basic_stringIcSt11char_traitsIcESaIcEEES5_St9_IdentityIS5_ESt4lessIS5_ESaIS5_EE7_S_leftEPSt18_Rb_tree_node_base
FNDA:0,_ZNSt8_Rb_treeINSt7__cxx1112basic_stringIcSt11char_traitsIcESaIcEEES5_St9_IdentityIS5_ESt4lessIS5_ESaIS5_EE7_S_leftEPKSt18_Rb_tree_node_base
FNDA:118,_ZNSt8_Rb_treeINSt7__cxx1112basic_stringIcSt11char_traitsIcESaIcEEES5_St9_IdentityIS5_ESt4lessIS5_ESaIS5_EE8_S_rightEPSt18_Rb_tree_node_base
FNDA:84,_ZNSt8_Rb_treeINSt7__cxx1112basic_stringIcSt11char_traitsIcESaIcEEES5_St9_IdentityIS5_ESt4lessIS5_ESaIS5_EE8_S_rightEPKSt18_Rb_tree_node_base
FNDA:60,_ZNSt8_Rb_treeINSt7__cxx1112basic_stringIcSt11char_traitsIcESaIcEEES5_St9_IdentityIS5_ESt4lessIS5_ESaIS5_EE6_S_keyEPKSt18_Rb_tree_node_base
FNDA:4,_ZNSt8_Rb_treeINSt7__cxx1112basic_stringIcSt11char_traitsIcESaIcEEES5_St9_IdentityIS5_ESt4lessIS5_ESaIS5_EEC2Ev
FNDA:4,_ZNSt8_Rb_treeINSt7__cxx1112basic_stringIcSt11char_traitsIcESaIcEEES5_St9_IdentityIS5_ESt4lessIS5_ESaIS5_EED2Ev
FNDA:4,_ZNSt8_Rb_treeINSt7__cxx1112basic_stringIcSt11char_traitsIcESaIcEEES5_St9_IdentityIS5_ESt4lessIS5_ESaIS5_EE5beginEv
FNF:42
FNH:40
DA:146,4
DA:150,4
DA:173,4
DA:174,4
DA:175,4
DA:176,4
DA:177,4
DA:206,4
DA:208,4
DA:209,4
DA:210,4
DA:211,4
DA:212,4
DA:234,68
DA:235,68
DA:238,228
DA:239,228
DA:273,72
DA:274,72
DA:300,0
DA:302,0
DA:303,0
DA:315,4
DA:316,4
DA:347,136
DA:348,136
DA:350,34
DA:351,34
DA:396,68
DA:397,68
DA:525,34
DA:526,34
DA:530,34
DA:531,34
DA:549,136
DA:550,136
DA:562,34
DA:563,68
DA:566,34
DA:567,34
DA:592,34
DA:596,34
DA:597,34
DA:601,0
DA:603,0
DA:604,0
DA:605,0
DA:607,34
DA:611,34
DA:613,34
DA:614,34
DA:615,34
DA:620,34
DA:625,34
DA:626,34
DA:628,34
DA:631,34
DA:633,34
DA:634,34
DA:635,34
DA:669,4
DA:673,4
DA:674,4
DA:736,38
DA:737,38
DA:740,38
DA:741,38
DA:744,34
DA:747,34
DA:751,68
DA:752,68
DA:755,34
DA:756,34
DA:759,228
DA:777,228
DA:781,34
DA:782,34
DA:785,0
DA:786,0
DA:789,118
DA:790,118
DA:793,84
DA:794,84
DA:797,60
DA:798,60
DA:930,4
DA:985,4
DA:986,4
DA:997,4
DA:998,4
DA:1009,102
DA:1010,102
DA:1818,34
DA:1827,34
DA:1828,68
DA:1831,34
DA:1833,34
DA:1834,34
DA:1835,34
DA:1836,34
DA:1930,38
DA:1934,72
DA:1936,34
DA:1937,34
DA:1938,34
DA:1939,34
DA:1941,38
DA:1963,34
DA:1967,118
DA:1968,84
DA:1969,0
DA:1971,84
DA:1972,34
DA:2108,34
DA:2112,34
DA:2113,34
DA:2114,34
DA:2115,118
DA:2117,84
DA:2118,84
DA:2119,84
DA:2121,34
DA:2122,34
DA:2124,4
DA:2125,4
DA:2127,0
DA:2129,30
DA:2130,30
DA:2131,0
DA:2162,34
DA:2171,34
DA:2173,34
DA:2175,34
DA:2176,34
DA:2178,34
DA:2181,0
DA:2542,34
DA:2545,34
DA:2546,68
DA:2547,0
DA:2548,68
LF:141
LH:127
end_of_record
TN:
SF:/usr/include/c++/13/bits/stl_uninitialized.h
FN:1069,1079,_ZSt19__relocate_object_aIN7testing8internal26ParameterizedTestSuiteInfoI21ErrorHandlingHelpTestE17InstantiationInfoES5_SaIS5_EEvPT_PT0_RT1_
FN:1069,1079,_ZSt19__relocate_object_aIN7testing8internal26ParameterizedTestSuiteInfoI26ErrorHandlingTestArgumentsE17InstantiationInfoES5_SaIS5_EEvPT_PT0_RT1_
FN:1069,1079,_ZSt19__relocate_object_aISt10shared_ptrIN7testing8internal26ParameterizedTestSuiteInfoI21ErrorHandlingHelpTestE8TestInfoEES7_SaIS7_EEvPT_PT0_RT1_
FN:1069,1079,_ZSt19__relocate_object_aISt10shared_ptrIN7testing8internal26ParameterizedTestSuiteInfoI26ErrorHandlingTestArgumentsE8TestInfoEES7_SaIS7_EEvPT_PT0_RT1_
FN:1091,1108,_ZSt14__relocate_a_1IPN7testing8internal26ParameterizedTestSuiteInfoI21ErrorHandlingHelpTestE17InstantiationInfoES6_SaIS5_EET0_T_S9_S8_RT1_
FN:1091,1108,_ZSt14__relocate_a_1IPN7testing8internal26ParameterizedTestSuiteInfoI26ErrorHandlingTestArgumentsE17InstantiationInfoES6_SaIS5_EET0_T_S9_S8_RT1_
FN:1091,1108,_ZSt14__relocate_a_1IPSt10shared_ptrIN7testing8internal26ParameterizedTestSuiteInfoI21ErrorHandlingHelpTestE8TestInfoEES8_SaIS7_EET0_T_SB_SA_RT1_
FN:1091,1108,_ZSt14__relocate_a_1IPSt10shared_ptrIN7testing8internal26ParameterizedTestSuiteInfoI26ErrorHandlingTestArgumentsE8TestInfoEES8_SaIS7_EET0_T_SB_SA_RT1_
FN:1114,1134,_ZSt14__relocate_a_1IPN7testing8internal30ParameterizedTestSuiteInfoBaseES3_ENSt9enable_ifIXsrSt24__is_bitwise_relocatableIT_vE5valueEPS6_E4typeES8_S8_S8_RSaIT0_E
FN:1141,1150,_ZSt12__relocate_aIPN7testing8internal26ParameterizedTestSuiteInfoI21ErrorHandlingHelpTestE17InstantiationInfoES6_SaIS5_EET0_T_S9_S8_RT1_
FN:1141,1150,_ZSt12__relocate_aIPN7testing8internal26ParameterizedTestSuiteInfoI26ErrorHandlingTestArgumentsE17InstantiationInfoES6_SaIS5_EET0_T_S9_S8_RT1_
FN:1141,1150,_ZSt12__relocate_aIPPN7testing8internal30ParameterizedTestSuiteInfoBaseES4_SaIS3_EET0_T_S7_S6_RT1_
FN:1141,1150,_ZSt12__relocate_aIPSt10shared_ptrIN7testing8internal26ParameterizedTestSuiteInfoI21ErrorHandlingHelpTestE8TestInfoEES8_SaIS7_EET0_T_SB_SA_RT1_
FN:1141,1150,_ZSt12__relocate_aIPSt10shared_ptrIN7testing8internal26ParameterizedTestSuiteInfoI26ErrorHandlingTestArgumentsE8TestInfoEES8_SaIS7_EET0_T_SB_SA_RT1_
FN:145,147,_ZNSt20__uninitialized_copyILb1EE13__uninit_copyIN9__gnu_cxx17__normal_iteratorIPK13ArgumentsCaseSt6vectorIS4_SaIS4_EEEEPS4_EET0_T_SD_SC_
FN:145,147,_ZNSt20__uninitialized_copyILb1EE13__uninit_copyIN9__gnu_cxx17__normal_iteratorIPK9ErrorCaseSt6vectorIS4_SaIS4_EEEEPS4_EET0_T_SD_SC_
FN:145,147,_ZNSt20__uninitialized_copyILb1EE13__uninit_copyIPK13ArgumentsCasePS2_EET0_T_S7_S6_
FN:145,147,_ZNSt20__uninitialized_copyILb1EE13__uninit_copyIPK9ErrorCasePS2_EET0_T_S7_S6_
FN:163,186,_ZSt18uninitialized_copyIN9__gnu_cxx17__normal_iteratorIPK13ArgumentsCaseSt6vectorIS2_SaIS2_EEEEPS2_ET0_T_SB_SA_
FN:163,186,_ZSt18uninitialized_copyIN9__gnu_cxx17__normal_iteratorIPK9ErrorCaseSt6vectorIS2_SaIS2_EEEEPS2_ET0_T_SB_SA_
FN:163,186,_ZSt18uninitialized_copyIPK13ArgumentsCasePS0_ET0_T_S5_S4_
FN:163,186,_ZSt18uninitialized_copyIPK9ErrorCasePS0_ET0_T_S5_S4_
FN:366,374,_ZSt22__uninitialized_copy_aIN9__gnu_cxx17__normal_iteratorIPK13ArgumentsCaseSt6vectorIS2_SaIS2_EEEEPS2_S2_ET0_T_SB_SA_RSaIT1_E
FN:366,374,_ZSt22__uninitialized_copy_aIN9__gnu_cxx17__normal_iteratorIPK9ErrorCaseSt6vectorIS2_SaIS2_EEEEPS2_S2_ET0_T_SB_SA_RSaIT1_E
FN:366,374,_ZSt22__uninitialized_copy_aIPK13ArgumentsCasePS0_S0_ET0_T_S5_S4_RSaIT1_E
FN:366,374,_ZSt22__uninitialized_copy_aIPK9ErrorCasePS0_S0_ET0_T_S5_S4_RSaIT1_E
FNDA:0,_ZSt19__relocate_object_aIN7testing8internal26ParameterizedTestSuiteInfoI21ErrorHandlingHelpTestE17InstantiationInfoES5_SaIS5_EEvPT_PT0_RT1_
FNDA:0,_ZSt19__relocate_object_aIN7testing8internal26ParameterizedTestSuiteInfoI26ErrorHandlingTestArgumentsE17InstantiationInfoES5_SaIS5_EEvPT_PT0_RT1_
FNDA:0,_ZSt19__relocate_object_aISt10shared_ptrIN7testing8internal26ParameterizedTestSuiteInfoI21ErrorHandlingHelpTestE8TestInfoEES7_SaIS7_EEvPT_PT0_RT1_
FNDA:0,_ZSt19__relocate_object_aISt10shared_ptrIN7testing8internal26ParameterizedTestSuiteInfoI26ErrorHandlingTestArgumentsE8TestInfoEES7_SaIS7_EEvPT_PT0_RT1_
FNDA:4,_ZSt14__relocate_a_1IPN7testing8internal26ParameterizedTestSuiteInfoI21ErrorHandlingHelpTestE17InstantiationInfoES6_SaIS5_EET0_T_S9_S8_RT1_
FNDA:4,_ZSt14__relocate_a_1IPN7testing8internal26ParameterizedTestSuiteInfoI26ErrorHandlingTestArgumentsE17InstantiationInfoES6_SaIS5_EET0_T_S9_S8_RT1_
FNDA:4,_ZSt14__relocate_a_1IPSt10shared_ptrIN7testing8internal26ParameterizedTestSuiteInfoI21ErrorHandlingHelpTestE8TestInfoEES8_SaIS7_EET0_T_SB_SA_RT1_
FNDA:4,_ZSt14__relocate_a_1IPSt10shared_ptrIN7testing8internal26ParameterizedTestSuiteInfoI26ErrorHandlingTestArgumentsE8TestInfoEES8_SaIS7_EET0_T_SB_SA_RT1_
FNDA:8,_ZSt14__relocate_a_1IPN7testing8internal30ParameterizedTestSuiteInfoBaseES3_ENSt9enable_ifIXsrSt24__is_bitwise_relocatableIT_vE5valueEPS6_E4typeES8_S8_S8_RSaIT0_E
FNDA:4,_ZSt12__relocate_aIPN7testing8internal26ParameterizedTestSuiteInfoI21ErrorHandlingHelpTestE17InstantiationInfoES6_SaIS5_EET0_T_S9_S8_RT1_
FNDA:4,_ZSt12__relocate_aIPN7testing8internal26ParameterizedTestSuiteInfoI26ErrorHandlingTestArgumentsE17InstantiationInfoES6_SaIS5_EET0_T_S9_S8_RT1_
FNDA:8,_ZSt12__relocate_aIPPN7testing8internal30ParameterizedTestSuiteInfoBaseES4_SaIS3_EET0_T_S7_S6_RT1_
FNDA:4,_ZSt12__relocate_aIPSt10shared_ptrIN7testing8internal26ParameterizedTestSuiteInfoI21ErrorHandlingHelpTestE8TestInfoEES8_SaIS7_EET0_T_SB_SA_RT1_
FNDA:4,_ZSt12__relocate_aIPSt10shared_ptrIN7testing8internal26ParameterizedTestSuiteInfoI26ErrorHandlingTestArgumentsE8TestInfoEES8_SaIS7_EET0_T_SB_SA_RT1_
FNDA:2,_ZNSt20__uninitialized_copyILb1EE13__uninit_copyIN9__gnu_cxx17__normal_iteratorIPK13ArgumentsCaseSt6vectorIS4_SaIS4_EEEEPS4_EET0_T_SD_SC_
FNDA:2,_ZNSt20__uninitialized_copyILb1EE13__uninit_copyIN9__gnu_cxx17__normal_iteratorIPK9ErrorCaseSt6vectorIS4_SaIS4_EEEEPS4_EET0_T_SD_SC_
FNDA:2,_ZNSt20__uninitialized_copyILb1EE13__uninit_copyIPK13ArgumentsCasePS2_EET0_T_S7_S6_
FNDA:2,_ZNSt20__uninitialized_copyILb1EE13__uninit_copyIPK9ErrorCasePS2_EET0_T_S7_S6_
FNDA:2,_ZSt18uninitialized_copyIN9__gnu_cxx17__normal_iteratorIPK13ArgumentsCaseSt6vectorIS2_SaIS2_EEEEPS2_ET0_T_SB_SA_
FNDA:2,_ZSt18uninitialized_copyIN9__gnu_cxx17__normal_iteratorIPK9ErrorCaseSt6vectorIS2_SaIS2_EEEEPS2_ET0_T_SB_SA_
FNDA:2,_ZSt18uninitialized_copyIPK13ArgumentsCasePS0_ET0_T_S5_S4_
FNDA:2,_ZSt18uninitialized_copyIPK9ErrorCasePS0_ET0_T_S5_S4_
FNDA:2,_ZSt22__uninitialized_copy_aIN9__gnu_cxx17__normal_iteratorIPK13ArgumentsCaseSt6vectorIS2_SaIS2_EEEEPS2_S2_ET0_T_SB_SA_RSaIT1_E
FNDA:2,_ZSt22__uninitialized_copy_aIN9__gnu_cxx17__normal_iteratorIPK9ErrorCaseSt6vectorIS2_SaIS2_EEEEPS2_S2_ET0_T_SB_SA_RSaIT1_E
FNDA:2,_ZSt22__uninitialized_copy_aIPK13ArgumentsCasePS0_S0_ET0_T_S5_S4_RSaIT1_E
FNDA:2,_ZSt22__uninitialized_copy_aIPK9ErrorCasePS0_S0_ET0_T_S5_S4_RSaIT1_E
FNF:26
FNH:22
DA:145,8
DA:147,8
DA:163,8
DA:174,8
DA:181,8
DA:185,8
DA:366,8
DA:373,8
DA:1069,0
DA:1077,0
DA:1078,0
DA:1079,0
DA:1091,16
DA:1103,16
DA:1104,16
DA:1105,0
DA:1107,16
DA:1114,8
DA:1118,8
DA:1119,8
DA:1131,2
DA:1133,8
DA:1141,24
DA:1147,24
DA:1149,24
LF:25
LH:20
end_of_record
TN:
SF:/usr/include/c++/13/bits/stl_vector.h
FN:1088,1089,_ZNKSt6vectorISt10shared_ptrIN7testing8internal26ParameterizedTestSuiteInfoI21ErrorHandlingHelpTestE8TestInfoEESaIS7_EE5emptyEv
FN:1088,1089,_ZNKSt6vectorISt10shared_ptrIN7testing8internal26ParameterizedTestSuiteInfoI26ErrorHandlingTestArgumentsE8TestInfoEESaIS7_EE5emptyEv
FN:1233,1237,_ZNSt6vectorIN7testing8internal26ParameterizedTestSuiteInfoI21ErrorHandlingHelpTestE17InstantiationInfoESaIS5_EE4backEv
FN:1233,1237,_ZNSt6vectorIN7testing8internal26ParameterizedTestSuiteInfoI26ErrorHandlingTestArgumentsE17InstantiationInfoESaIS5_EE4backEv
FN:1233,1237,_ZNSt6vectorIPN7testing8internal30ParameterizedTestSuiteInfoBaseESaIS3_EE4backEv
FN:1233,1237,_ZNSt6vectorISt10shared_ptrIN7testing8internal26ParameterizedTestSuiteInfoI21ErrorHandlingHelpTestE8TestInfoEESaIS7_EE4backEv
FN:1233,1237,_ZNSt6vectorISt10shared_ptrIN7testing8internal26ParameterizedTestSuiteInfoI26ErrorHandlingTestArgumentsE8TestInfoEESaIS7_EE4backEv
FN:1298,1299,_ZNSt6vectorIN7testing8internal26ParameterizedTestSuiteInfoI21ErrorHandlingHelpTestE17InstantiationInfoESaIS5_EE9push_backEOS5_
FN:1298,1299,_ZNSt6vectorIN7testing8internal26ParameterizedTestSuiteInfoI26ErrorHandlingTestArgumentsE17InstantiationInfoESaIS5_EE9push_backEOS5_
FN:1298,1299,_ZNSt6vectorIPN7testing8internal30ParameterizedTestSuiteInfoBaseESaIS3_EE9push_backEOS3_
FN:1298,1299,_ZNSt6vectorISt10shared_ptrIN7testing8internal26ParameterizedTestSuiteInfoI21ErrorHandlingHelpTestE8TestInfoEESaIS7_EE9push_backEOS7_
FN:1298,1299,_ZNSt6vectorISt10shared_ptrIN7testing8internal26ParameterizedTestSuiteInfoI26ErrorHandlingTestArgumentsE8TestInfoEESaIS7_EE9push_backEOS7_
FN:137,143,_ZNSt12_Vector_baseIN7testing8internal26ParameterizedTestSuiteInfoI21ErrorHandlingHelpTestE17InstantiationInfoESaIS5_EE12_Vector_implC2Ev
FN:137,143,_ZNSt12_Vector_baseIN7testing8internal26ParameterizedTestSuiteInfoI26ErrorHandlingTestArgumentsE17InstantiationInfoESaIS5_EE12_Vector_implC2Ev
FN:137,143,_ZNSt12_Vector_baseISt10shared_ptrIN7testing8internal26ParameterizedTestSuiteInfoI21ErrorHandlingHelpTestE8TestInfoEESaIS7_EE12_Vector_implC2Ev
FN:137,143,_ZNSt12_Vector_baseISt10shared_ptrIN7testing8internal26ParameterizedTestSuiteInfoI26ErrorHandlingTestArgumentsE8TestInfoEESaIS7_EE12_Vector_implC2Ev
FN:146,148,_ZNSt12_Vector_baseI13ArgumentsCaseSaIS0_EE12_Vector_implC2ERKS1_
FN:146,148,_ZNSt12_Vector_baseI9ErrorCaseSaIS0_EE12_Vector_implC2ERKS1_
FN:1687,1698,_ZNSt6vectorI13ArgumentsCaseSaIS0_EE19_M_range_initializeIN9__gnu_cxx17__normal_iteratorIPKS0_S2_EEEEvT_S9_St20forward_iterator_tag
FN:1687,1698,_ZNSt6vectorI13ArgumentsCaseSaIS0_EE19_M_range_initializeIPKS0_EEvT_S6_St20forward_iterator_tag
FN:1687,1698,_ZNSt6vectorI9ErrorCaseSaIS0_EE19_M_range_initializeIN9__gnu_cxx17__normal_iteratorIPKS0_S2_EEEEvT_S9_St20forward_iterator_tag
FN:1687,1698,_ZNSt6vectorI9ErrorCaseSaIS0_EE19_M_range_initializeIPKS0_EEvT_S6_St20forward_iterator_tag
FN:1896,1903,_ZNKSt6vectorIN7testing8internal26ParameterizedTestSuiteInfoI21ErrorHandlingHelpTestE17InstantiationInfoESaIS5_EE12_M_check_lenEmPKc
FN:1896,1903,_ZNKSt6vectorIN7testing8internal26ParameterizedTestSuiteInfoI26ErrorHandlingTestArgumentsE17InstantiationInfoESaIS5_EE12_M_check_lenEmPKc
FN:1896,1903,_ZNKSt6vectorIPN7testing8internal30ParameterizedTestSuiteInfoBaseESaIS3_EE12_M_check_lenEmPKc
FN:1896,1903,_ZNKSt6vectorISt10shared_ptrIN7testing8internal26ParameterizedTestSuiteInfoI21ErrorHandlingHelpTestE8TestInfoEESaIS7_EE12_M_check_lenEmPKc
FN:1896,1903,_ZNKSt6vectorISt10shared_ptrIN7testing8internal26ParameterizedTestSuiteInfoI26ErrorHandlingTestArgumentsE8TestInfoEESaIS7_EE12_M_check_lenEmPKc
FN:1907,1913,_ZNSt6vectorI13ArgumentsCaseSaIS0_EE17_S_check_init_lenEmRKS1_
FN:1907,1913,_ZNSt6vectorI9ErrorCaseSaIS0_EE17_S_check_init_lenEmRKS1_
FN:1916,1925,_ZNSt6vectorI13ArgumentsCaseSaIS0_EE11_S_max_sizeERKS1_
FN:1916,1925,_ZNSt6vectorI9ErrorCaseSaIS0_EE11_S_max_sizeERKS1_
FN:1916,1925,_ZNSt6vectorIN7testing8internal26ParameterizedTestSuiteInfoI21ErrorHandlingHelpTestE17InstantiationInfoESaIS5_EE11_S_max_sizeERKS6_
FN:1916,1925,_ZNSt6vectorIN7testing8internal26ParameterizedTestSuiteInfoI26ErrorHandlingTestArgumentsE17InstantiationInfoESaIS5_EE11_S_max_sizeERKS6_
FN:1916,1925,_ZNSt6vectorIPN7testing8internal30ParameterizedTestSuiteInfoBaseESaIS3_EE11_S_max_sizeERKS4_
FN:1916,1925,_ZNSt6vectorISt10shared_ptrIN7testing8internal26ParameterizedTestSuiteInfoI21ErrorHandlingHelpTestE8TestInfoEESaIS7_EE11_S_max_sizeERKS8_
FN:1916,1925,_ZNSt6vectorISt10shared_ptrIN7testing8internal26ParameterizedTestSuiteInfoI26ErrorHandlingTestArgumentsE8TestInfoEESaIS7_EE11_S_max_sizeERKS8_
FN:301,302,_ZNSt12_Vector_baseI13ArgumentsCaseSaIS0_EE19_M_get_Tp_allocatorEv
FN:301,302,_ZNSt12_Vector_baseI9ErrorCaseSaIS0_EE19_M_get_Tp_allocatorEv
FN:301,302,_ZNSt12_Vector_baseIN7testing8internal26ParameterizedTestSuiteInfoI21ErrorHandlingHelpTestE17InstantiationInfoESaIS5_EE19_M_get_Tp_allocatorEv
FN:301,302,_ZNSt12_Vector_baseIN7testing8internal26ParameterizedTestSuiteInfoI26ErrorHandlingTestArgumentsE17InstantiationInfoESaIS5_EE19_M_get_Tp_allocatorEv
FN:301,302,_ZNSt12_Vector_baseIPN7testing8internal30ParameterizedTestSuiteInfoBaseESaIS3_EE19_M_get_Tp_allocatorEv
FN:301,302,_ZNSt12_Vector_baseISt10shared_ptrIN7testing8internal26ParameterizedTestSuiteInfoI21ErrorHandlingHelpTestE8TestInfoEESaIS7_EE19_M_get_Tp_allocatorEv
FN:301,302,_ZNSt12_Vector_baseISt10shared_ptrIN7testing8internal26ParameterizedTestSuiteInfoI26ErrorHandlingTestArgumentsE8TestInfoEESaIS7_EE19_M_get_Tp_allocatorEv
FN:306,307,_ZNKSt12_Vector_baseIN7testing8internal26ParameterizedTestSuiteInfoI21ErrorHandlingHelpTestE17InstantiationInfoESaIS5_EE19_M_get_Tp_allocatorEv
FN:306,307,_ZNKSt12_Vector_baseIN7testing8internal26ParameterizedTestSuiteInfoI26ErrorHandlingTestArgumentsE17InstantiationInfoESaIS5_EE19_M_get_Tp_allocatorEv
FN:306,307,_ZNKSt12_Vector_baseIPN7testing8internal30ParameterizedTestSuiteInfoBaseESaIS3_EE19_M_get_Tp_allocatorEv
FN:306,307,_ZNKSt12_Vector_baseISt10shared_ptrIN7testing8internal26ParameterizedTestSuiteInfoI21ErrorHandlingHelpTestE8TestInfoEESaIS7_EE19_M_get_Tp_allocatorEv
FN:306,307,_ZNKSt12_Vector_baseISt10shared_ptrIN7testing8internal26ParameterizedTestSuiteInfoI26ErrorHandlingTestArgumentsE8TestInfoEESaIS7_EE19_M_get_Tp_allocatorEv
FN:315,315,_ZNSt12_Vector_baseIN7testing8internal26ParameterizedTestSuiteInfoI21ErrorHandlingHelpTestE17InstantiationInfoESaIS5_EEC2Ev
FN:315,315,_ZNSt12_Vector_baseIN7testing8internal26ParameterizedTestSuiteInfoI26ErrorHandlingTestArgumentsE17InstantiationInfoESaIS5_EEC2Ev
FN:315,315,_ZNSt12_Vector_baseISt10shared_ptrIN7testing8internal26ParameterizedTestSuiteInfoI21ErrorHandlingHelpTestE8TestInfoEESaIS7_EEC2Ev
FN:315,315,_ZNSt12_Vector_baseISt10shared_ptrIN7testing8internal26ParameterizedTestSuiteInfoI26ErrorHandlingTestArgumentsE8TestInfoEESaIS7_EEC2Ev
FN:321,322,_ZNSt12_Vector_baseI13ArgumentsCaseSaIS0_EEC2ERKS1_
FN:321,322,_ZNSt12_Vector_baseI9ErrorCaseSaIS0_EEC2ERKS1_
FN:367,371,_ZNSt12_Vector_baseI13ArgumentsCaseSaIS0_EED2Ev
FN:367,371,_ZNSt12_Vector_baseI9ErrorCaseSaIS0_EED2Ev
FN:367,371,_ZNSt12_Vector_baseIN7testing8internal26ParameterizedTestSuiteInfoI21ErrorHandlingHelpTestE17InstantiationInfoESaIS5_EED2Ev
FN:367,371,_ZNSt12_Vector_baseIN7testing8internal26ParameterizedTestSuiteInfoI26ErrorHandlingTestArgumentsE17InstantiationInfoESaIS5_EED2Ev
FN:367,371,_ZNSt12_Vector_baseISt10shared_ptrIN7testing8internal26ParameterizedTestSuiteInfoI21ErrorHandlingHelpTestE8TestInfoEESaIS7_EED2Ev
FN:367,371,_ZNSt12_Vector_baseISt10shared_ptrIN7testing8internal26ParameterizedTestSuiteInfoI26ErrorHandlingTestArgumentsE8TestInfoEESaIS7_EED2Ev
FN:378,382,_ZNSt12_Vector_baseI13ArgumentsCaseSaIS0_EE11_M_allocateEm
FN:378,382,_ZNSt12_Vector_baseI9ErrorCaseSaIS0_EE11_M_allocateEm
FN:378,382,_ZNSt12_Vector_baseIN7testing8internal26ParameterizedTestSuiteInfoI21ErrorHandlingHelpTestE17InstantiationInfoESaIS5_EE11_M_allocateEm
FN:378,382,_ZNSt12_Vector_baseIN7testing8internal26ParameterizedTestSuiteInfoI26ErrorHandlingTestArgumentsE17InstantiationInfoESaIS5_EE11_M_allocateEm
FN:378,382,_ZNSt12_Vector_baseIPN7testing8internal30ParameterizedTestSuiteInfoBaseESaIS3_EE11_M_allocateEm
FN:378,382,_ZNSt12_Vector_baseISt10shared_ptrIN7testing8internal26ParameterizedTestSuiteInfoI21ErrorHandlingHelpTestE8TestInfoEESaIS7_EE11_M_allocateEm
FN:378,382,_ZNSt12_Vector_baseISt10shared_ptrIN7testing8internal26ParameterizedTestSuiteInfoI26ErrorHandlingTestArgumentsE8TestInfoEESaIS7_EE11_M_allocateEm
FN:386,391,_ZNSt12_Vector_baseI13ArgumentsCaseSaIS0_EE13_M_deallocateEPS0_m
FN:386,391,_ZNSt12_Vector_baseI9ErrorCaseSaIS0_EE13_M_deallocateEPS0_m
FN:386,391,_ZNSt12_Vector_baseIN7testing8internal26ParameterizedTestSuiteInfoI21ErrorHandlingHelpTestE17InstantiationInfoESaIS5_EE13_M_deallocateEPS5_m
FN:386,391,_ZNSt12_Vector_baseIN7testing8internal26ParameterizedTestSuiteInfoI26ErrorHandlingTestArgumentsE17InstantiationInfoESaIS5_EE13_M_deallocateEPS5_m
FN:386,391,_ZNSt12_Vector_baseIPN7testing8internal30ParameterizedTestSuiteInfoBaseESaIS3_EE13_M_deallocateEPS3_m
FN:386,391,_ZNSt12_Vector_baseISt10shared_ptrIN7testing8internal26ParameterizedTestSuiteInfoI21ErrorHandlingHelpTestE8TestInfoEESaIS7_EE13_M_deallocateEPS7_m
FN:386,391,_ZNSt12_Vector_baseISt10shared_ptrIN7testing8internal26ParameterizedTestSuiteInfoI26ErrorHandlingTestArgumentsE8TestInfoEESaIS7_EE13_M_deallocateEPS7_m
FN:504,514,_ZNSt6vectorIN7testing8internal26ParameterizedTestSuiteInfoI21ErrorHandlingHelpTestE17InstantiationInfoESaIS5_EE11_S_relocateEPS5_S8_S8_RS6_
FN:504,514,_ZNSt6vectorIN7testing8internal26ParameterizedTestSuiteInfoI26ErrorHandlingTestArgumentsE17InstantiationInfoESaIS5_EE11_S_relocateEPS5_S8_S8_RS6_
FN:504,514,_ZNSt6vectorIPN7testing8internal30ParameterizedTestSuiteInfoBaseESaIS3_EE11_S_relocateEPS3_S6_S6_RS4_
FN:504,514,_ZNSt6vectorISt10shared_ptrIN7testing8internal26ParameterizedTestSuiteInfoI21ErrorHandlingHelpTestE8TestInfoEESaIS7_EE11_S_relocateEPS7_SA_SA_RS8_
FN:504,514,_ZNSt6vectorISt10shared_ptrIN7testing8internal26ParameterizedTestSuiteInfoI26ErrorHandlingTestArgumentsE8TestInfoEESaIS7_EE11_S_relocateEPS7_SA_SA_RS8_
FN:531,531,_ZNSt6vectorIN7testing8internal26ParameterizedTestSuiteInfoI21ErrorHandlingHelpTestE17InstantiationInfoESaIS5_EEC2Ev
FN:531,531,_ZNSt6vectorIN7testing8internal26ParameterizedTestSuiteInfoI26ErrorHandlingTestArgumentsE17InstantiationInfoESaIS5_EEC2Ev
FN:531,531,_ZNSt6vectorISt10shared_ptrIN7testing8internal26ParameterizedTestSuiteInfoI21ErrorHandlingHelpTestE8TestInfoEESaIS7_EEC2Ev
FN:531,531,_ZNSt6vectorISt10shared_ptrIN7testing8internal26ParameterizedTestSuiteInfoI26ErrorHandlingTestArgumentsE8TestInfoEESaIS7_EEC2Ev
FN:678,684,_ZNSt6vectorI13ArgumentsCaseSaIS0_EEC2ESt16initializer_listIS0_ERKS1_
FN:678,684,_ZNSt6vectorI9ErrorCaseSaIS0_EEC2ESt16initializer_listIS0_ERKS1_
FN:707,713,_ZNSt6vectorI13ArgumentsCaseSaIS0_EEC2IN9__gnu_cxx17__normal_iteratorIPKS0_S2_EEvEET_S9_RKS1_
FN:707,713,_ZNSt6vectorI9ErrorCaseSaIS0_EEC2IN9__gnu_cxx17__normal_iteratorIPKS0_S2_EEvEET_S9_RKS1_
FN:733,738,_ZNSt6vectorI13ArgumentsCaseSaIS0_EED2Ev
FN:733,738,_ZNSt6vectorI9ErrorCaseSaIS0_EED2Ev
FN:733,738,_ZNSt6vectorIN7testing8internal26ParameterizedTestSuiteInfoI21ErrorHandlingHelpTestE17InstantiationInfoESaIS5_EED2Ev
FN:733,738,_ZNSt6vectorIN7testing8internal26ParameterizedTestSuiteInfoI26ErrorHandlingTestArgumentsE17InstantiationInfoESaIS5_EED2Ev
FN:733,738,_ZNSt6vectorISt10shared_ptrIN7testing8internal26ParameterizedTestSuiteInfoI21ErrorHandlingHelpTestE8TestInfoEESaIS7_EED2Ev
FN:733,738,_ZNSt6vectorISt10shared_ptrIN7testing8internal26ParameterizedTestSuiteInfoI26ErrorHandlingTestArgumentsE8TestInfoEESaIS7_EED2Ev
FN:873,874,_ZNSt6vectorIN7testing8internal26ParameterizedTestSuiteInfoI21ErrorHandlingHelpTestE17InstantiationInfoESaIS5_EE5beginEv
FN:873,874,_ZNSt6vectorIN7testing8internal26ParameterizedTestSuiteInfoI26ErrorHandlingTestArgumentsE17InstantiationInfoESaIS5_EE5beginEv
FN:873,874,_ZNSt6vectorIPN7testing8internal30ParameterizedTestSuiteInfoBaseESaIS3_EE5beginEv
FN:873,874,_ZNSt6vectorISt10shared_ptrIN7testing8internal26ParameterizedTestSuiteInfoI21ErrorHandlingHelpTestE8TestInfoEESaIS7_EE5beginEv
FN:873,874,_ZNSt6vectorISt10shared_ptrIN7testing8internal26ParameterizedTestSuiteInfoI26ErrorHandlingTestArgumentsE8TestInfoEESaIS7_EE5beginEv
FN:883,884,_ZNKSt6vectorI13ArgumentsCaseSaIS0_EE5beginEv
FN:883,884,_ZNKSt6vectorI9ErrorCaseSaIS0_EE5beginEv
FN:883,884,_ZNKSt6vectorISt10shared_ptrIN7testing8internal26ParameterizedTestSuiteInfoI21ErrorHandlingHelpTestE8TestInfoEESaIS7_EE5beginEv
FN:883,884,_ZNKSt6vectorISt10shared_ptrIN7testing8internal26ParameterizedTestSuiteInfoI26ErrorHandlingTestArgumentsE8TestInfoEESaIS7_EE5beginEv
FN:893,894,_ZNSt6vectorIN7testing8internal26ParameterizedTestSuiteInfoI21ErrorHandlingHelpTestE17InstantiationInfoESaIS5_EE3endEv
FN:893,894,_ZNSt6vectorIN7testing8internal26ParameterizedTestSuiteInfoI26ErrorHandlingTestArgumentsE17InstantiationInfoESaIS5_EE3endEv
FN:893,894,_ZNSt6vectorIPN7testing8internal30ParameterizedTestSuiteInfoBaseESaIS3_EE3endEv
FN:893,894,_ZNSt6vectorISt10shared_ptrIN7testing8internal26ParameterizedTestSuiteInfoI21ErrorHandlingHelpTestE8TestInfoEESaIS7_EE3endEv
FN:893,894,_ZNSt6vectorISt10shared_ptrIN7testing8internal26ParameterizedTestSuiteInfoI26ErrorHandlingTestArgumentsE8TestInfoEESaIS7_EE3endEv
FN:903,904,_ZNKSt6vectorI13ArgumentsCaseSaIS0_EE3endEv
FN:903,904,_ZNKSt6vectorI9ErrorCaseSaIS0_EE3endEv
FN:903,904,_ZNKSt6vectorISt10shared_ptrIN7testing8internal26ParameterizedTestSuiteInfoI21ErrorHandlingHelpTestE8TestInfoEESaIS7_EE3endEv
FN:903,904,_ZNKSt6vectorISt10shared_ptrIN7testing8internal26ParameterizedTestSuiteInfoI26ErrorHandlingTestArgumentsE8TestInfoEESaIS7_EE3endEv
FN:99,101,_ZNSt12_Vector_baseI13ArgumentsCaseSaIS0_EE17_Vector_impl_dataC2Ev
FN:99,101,_ZNSt12_Vector_baseI9ErrorCaseSaIS0_EE17_Vector_impl_dataC2Ev
FN:99,101,_ZNSt12_Vector_baseIN7testing8internal26ParameterizedTestSuiteInfoI21ErrorHandlingHelpTestE17InstantiationInfoESaIS5_EE17_Vector_impl_dataC2Ev
FN:99,101,_ZNSt12_Vector_baseIN7testing8internal26ParameterizedTestSuiteInfoI26ErrorHandlingTestArgumentsE17InstantiationInfoESaIS5_EE17_Vector_impl_dataC2Ev
FN:99,101,_ZNSt12_Vector_baseISt10shared_ptrIN7testing8internal26ParameterizedTestSuiteInfoI21ErrorHandlingHelpTestE8TestInfoEESaIS7_EE17_Vector_impl_dataC2Ev
FN:99,101,_ZNSt12_Vector_baseISt10shared_ptrIN7testing8internal26ParameterizedTestSuiteInfoI26ErrorHandlingTestArgumentsE8TestInfoEESaIS7_EE17_Vector_impl_dataC2Ev
FN:992,993,_ZNKSt6vectorIN7testing8internal26ParameterizedTestSuiteInfoI21ErrorHandlingHelpTestE17InstantiationInfoESaIS5_EE4sizeEv
FN:992,993,_ZNKSt6vectorIN7testing8internal26ParameterizedTestSuiteInfoI26ErrorHandlingTestArgumentsE17InstantiationInfoESaIS5_EE4sizeEv
FN:992,993,_ZNKSt6vectorIPN7testing8internal30ParameterizedTestSuiteInfoBaseESaIS3_EE4sizeEv
FN:992,993,_ZNKSt6vectorISt10shared_ptrIN7testing8internal26ParameterizedTestSuiteInfoI21ErrorHandlingHelpTestE8TestInfoEESaIS7_EE4sizeEv
FN:992,993,_ZNKSt6vectorISt10shared_ptrIN7testing8internal26ParameterizedTestSuiteInfoI26ErrorHandlingTestArgumentsE8TestInfoEESaIS7_EE4sizeEv
FN:998,999,_ZNKSt6vectorIN7testing8internal26ParameterizedTestSuiteInfoI21ErrorHandlingHelpTestE17InstantiationInfoESaIS5_EE8max_sizeEv
FN:998,999,_ZNKSt6vectorIN7testing8internal26ParameterizedTestSuiteInfoI26ErrorHandlingTestArgumentsE17InstantiationInfoESaIS5_EE8max_sizeEv
FN:998,999,_ZNKSt6vectorIPN7testing8internal30ParameterizedTestSuiteInfoBaseESaIS3_EE8max_sizeEv
FN:998,999,_ZNKSt6vectorISt10shared_ptrIN7testing8internal26ParameterizedTestSuiteInfoI21ErrorHandlingHelpTestE8TestInfoEESaIS7_EE8max_sizeEv
FN:998,999,_ZNKSt6vectorISt10shared_ptrIN7testing8internal26ParameterizedTestSuiteInfoI26ErrorHandlingTestArgumentsE8TestInfoEESaIS7_EE8max_sizeEv
FNDA:0,_ZNKSt6vectorISt10shared_ptrIN7testing8internal26ParameterizedTestSuiteInfoI21ErrorHandlingHelpTestE8TestInfoEESaIS7_EE5emptyEv
FNDA:0,_ZNKSt6vectorISt10shared_ptrIN7testing8internal26ParameterizedTestSuiteInfoI26ErrorHandlingTestArgumentsE8TestInfoEESaIS7_EE5emptyEv
FNDA:2,_ZNSt6vectorIN7testing8internal26ParameterizedTestSuiteInfoI21ErrorHandlingHelpTestE17InstantiationInfoESaIS5_EE4backEv
FNDA:2,_ZNSt6vectorIN7testing8internal26ParameterizedTestSuiteInfoI26ErrorHandlingTestArgumentsE17InstantiationInfoESaIS5_EE4backEv
FNDA:4,_ZNSt6vectorIPN7testing8internal30ParameterizedTestSuiteInfoBaseESaIS3_EE4backEv
FNDA:2,_ZNSt6vectorISt10shared_ptrIN7testing8internal26ParameterizedTestSuiteInfoI21ErrorHandlingHelpTestE8TestInfoEESaIS7_EE4backEv
FNDA:2,_ZNSt6vectorISt10shared_ptrIN7testing8internal26ParameterizedTestSuiteInfoI26ErrorHandlingTestArgumentsE8TestInfoEESaIS7_EE4backEv
FNDA:2,_ZNSt6vectorIN7testing8internal26ParameterizedTestSuiteInfoI21ErrorHandlingHelpTestE17InstantiationInfoESaIS5_EE9push_backEOS5_
FNDA:2,_ZNSt6vectorIN7testing8internal26ParameterizedTestSuiteInfoI26ErrorHandlingTestArgumentsE17InstantiationInfoESaIS5_EE9push_backEOS5_
FNDA:4,_ZNSt6vectorIPN7testing8internal30ParameterizedTestSuiteInfoBaseESaIS3_EE9push_backEOS3_
FNDA:2,_ZNSt6vectorISt10shared_ptrIN7testing8internal26ParameterizedTestSuiteInfoI21ErrorHandlingHelpTestE8TestInfoEESaIS7_EE9push_backEOS7_
FNDA:2,_ZNSt6vectorISt10shared_ptrIN7testing8internal26ParameterizedTestSuiteInfoI26ErrorHandlingTestArgumentsE8TestInfoEESaIS7_EE9push_backEOS7_
FNDA:2,_ZNSt12_Vector_baseIN7testing8internal26ParameterizedTestSuiteInfoI21ErrorHandlingHelpTestE17InstantiationInfoESaIS5_EE12_Vector_implC2Ev
FNDA:2,_ZNSt12_Vector_baseIN7testing8internal26ParameterizedTestSuiteInfoI26ErrorHandlingTestArgumentsE17InstantiationInfoESaIS5_EE12_Vector_implC2Ev
FNDA:2,_ZNSt12_Vector_baseISt10shared_ptrIN7testing8internal26ParameterizedTestSuiteInfoI21ErrorHandlingHelpTestE8TestInfoEESaIS7_EE12_Vector_implC2Ev
FNDA:2,_ZNSt12_Vector_baseISt10shared_ptrIN7testing8internal26ParameterizedTestSuiteInfoI26ErrorHandlingTestArgumentsE8TestInfoEESaIS7_EE12_Vector_implC2Ev
FNDA:4,_ZNSt12_Vector_baseI13ArgumentsCaseSaIS0_EE12_Vector_implC2ERKS1_
FNDA:4,_ZNSt12_Vector_baseI9ErrorCaseSaIS0_EE12_Vector_implC2ERKS1_
FNDA:2,_ZNSt6vectorI13ArgumentsCaseSaIS0_EE19_M_range_initializeIN9__gnu_cxx17__normal_iteratorIPKS0_S2_EEEEvT_S9_St20forward_iterator_tag
FNDA:2,_ZNSt6vectorI13ArgumentsCaseSaIS0_EE19_M_range_initializeIPKS0_EEvT_S6_St20forward_iterator_tag
FNDA:2,_ZNSt6vectorI9ErrorCaseSaIS0_EE19_M_range_initializeIN9__gnu_cxx17__normal_iteratorIPKS0_S2_EEEEvT_S9_St20forward_iterator_tag
FNDA:2,_ZNSt6vectorI9ErrorCaseSaIS0_EE19_M_range_initializeIPKS0_EEvT_S6_St20forward_iterator_tag
FNDA:2,_ZNKSt6vectorIN7testing8internal26ParameterizedTestSuiteInfoI21ErrorHandlingHelpTestE17InstantiationInfoESaIS5_EE12_M_check_lenEmPKc
FNDA:2,_ZNKSt6vectorIN7testing8internal26ParameterizedTestSuiteInfoI26ErrorHandlingTestArgumentsE17InstantiationInfoESaIS5_EE12_M_check_lenEmPKc
FNDA:4,_ZNKSt6vectorIPN7testing8internal30ParameterizedTestSuiteInfoBaseESaIS3_EE12_M_check_lenEmPKc
FNDA:2,_ZNKSt6vectorISt10shared_ptrIN7testing8internal26ParameterizedTestSuiteInfoI21ErrorHandlingHelpTestE8TestInfoEESaIS7_EE12_M_check_lenEmPKc
FNDA:2,_ZNKSt6vectorISt10shared_ptrIN7testing8internal26ParameterizedTestSuiteInfoI26ErrorHandlingTestArgumentsE8TestInfoEESaIS7_EE12_M_check_lenEmPKc
FNDA:4,_ZNSt6vectorI13ArgumentsCaseSaIS0_EE17_S_check_init_lenEmRKS1_
FNDA:4,_ZNSt6vectorI9ErrorCaseSaIS0_EE17_S_check_init_lenEmRKS1_
FNDA:4,_ZNSt6vectorI13ArgumentsCaseSaIS0_EE11_S_max_sizeERKS1_
FNDA:4,_ZNSt6vectorI9ErrorCaseSaIS0_EE11_S_max_sizeERKS1_
FNDA:4,_ZNSt6vectorIN7testing8internal26ParameterizedTestSuiteInfoI21ErrorHandlingHelpTestE17InstantiationInfoESaIS5_EE11_S_max_sizeERKS6_
FNDA:4,_ZNSt6vectorIN7testing8internal26ParameterizedTestSuiteInfoI26ErrorHandlingTestArgumentsE17InstantiationInfoESaIS5_EE11_S_max_sizeERKS6_
FNDA:8,_ZNSt6vectorIPN7testing8internal30ParameterizedTestSuiteInfoBaseESaIS3_EE11_S_max_sizeERKS4_
FNDA:4,_ZNSt6vectorISt10shared_ptrIN7testing8internal26ParameterizedTestSuiteInfoI21ErrorHandlingHelpTestE8TestInfoEESaIS7_EE11_S_max_sizeERKS8_
FNDA:4,_ZNSt6vectorISt10shared_ptrIN7testing8internal26ParameterizedTestSuiteInfoI26ErrorHandlingTestArgumentsE8TestInfoEESaIS7_EE11_S_max_sizeERKS8_
FNDA:12,_ZNSt12_Vector_baseI13ArgumentsCaseSaIS0_EE19_M_get_Tp_allocatorEv
FNDA:12,_ZNSt12_Vector_baseI9ErrorCaseSaIS0_EE19_M_get_Tp_allocatorEv
FNDA:6,_ZNSt12_Vector_baseIN7testing8internal26ParameterizedTestSuiteInfoI21ErrorHandlingHelpTestE17InstantiationInfoESaIS5_EE19_M_get_Tp_allocatorEv
FNDA:6,_ZNSt12_Vector_baseIN7testing8internal26ParameterizedTestSuiteInfoI26ErrorHandlingTestArgumentsE17InstantiationInfoESaIS5_EE19_M_get_Tp_allocatorEv
FNDA:8,_ZNSt12_Vector_baseIPN7testing8internal30ParameterizedTestSuiteInfoBaseESaIS3_EE19_M_get_Tp_allocatorEv
FNDA:6,_ZNSt12_Vector_baseISt10shared_ptrIN7testing8internal26ParameterizedTestSuiteInfoI21ErrorHandlingHelpTestE8TestInfoEESaIS7_EE19_M_get_Tp_allocatorEv
FNDA:6,_ZNSt12_Vector_baseISt10shared_ptrIN7testing8internal26ParameterizedTestSuiteInfoI26ErrorHandlingTestArgumentsE8TestInfoEESaIS7_EE19_M_get_Tp_allocatorEv
FNDA:4,_ZNKSt12_Vector_baseIN7testing8internal26ParameterizedTestSuiteInfoI21ErrorHandlingHelpTestE17InstantiationInfoESaIS5_EE19_M_get_Tp_allocatorEv
FNDA:4,_ZNKSt12_Vector_baseIN7testing8internal26ParameterizedTestSuiteInfoI26ErrorHandlingTestArgumentsE17InstantiationInfoESaIS5_EE19_M_get_Tp_allocatorEv
FNDA:8,_ZNKSt12_Vector_baseIPN7testing8internal30ParameterizedTestSuiteInfoBaseESaIS3_EE19_M_get_Tp_allocatorEv
FNDA:4,_ZNKSt12_Vector_baseISt10shared_ptrIN7testing8internal26ParameterizedTestSuiteInfoI21ErrorHandlingHelpTestE8TestInfoEESaIS7_EE19_M_get_Tp_allocatorEv
FNDA:4,_ZNKSt12_Vector_baseISt10shared_ptrIN7testing8internal26ParameterizedTestSuiteInfoI26ErrorHandlingTestArgumentsE8TestInfoEESaIS7_EE19_M_get_Tp_allocatorEv
FNDA:2,_ZNSt12_Vector_baseIN7testing8internal26ParameterizedTestSuiteInfoI21ErrorHandlingHelpTestE17InstantiationInfoESaIS5_EEC2Ev
FNDA:2,_ZNSt12_Vector_baseIN7testing8internal26ParameterizedTestSuiteInfoI26ErrorHandlingTestArgumentsE17InstantiationInfoESaIS5_EEC2Ev
FNDA:2,_ZNSt12_Vector_baseISt10shared_ptrIN7testing8internal26ParameterizedTestSuiteInfoI21ErrorHandlingHelpTestE8TestInfoEESaIS7_EEC2Ev
FNDA:2,_ZNSt12_Vector_baseISt10shared_ptrIN7testing8internal26ParameterizedTestSuiteInfoI26ErrorHandlingTestArgumentsE8TestInfoEESaIS7_EEC2Ev
FNDA:4,_ZNSt12_Vector_baseI13ArgumentsCaseSaIS0_EEC2ERKS1_
FNDA:4,_ZNSt12_Vector_baseI9ErrorCaseSaIS0_EEC2ERKS1_
FNDA:4,_ZNSt12_Vector_baseI13ArgumentsCaseSaIS0_EED2Ev
FNDA:4,_ZNSt12_Vector_baseI9ErrorCaseSaIS0_EED2Ev
FNDA:2,_ZNSt12_Vector_baseIN7testing8internal26ParameterizedTestSuiteInfoI21ErrorHandlingHelpTestE17InstantiationInfoESaIS5_EED2Ev
FNDA:2,_ZNSt12_Vector_baseIN7testing8internal26ParameterizedTestSuiteInfoI26ErrorHandlingTestArgumentsE17InstantiationInfoESaIS5_EED2Ev
FNDA:2,_ZNSt12_Vector_baseISt10shared_ptrIN7testing8internal26ParameterizedTestSuiteInfoI21ErrorHandlingHelpTestE8TestInfoEESaIS7_EED2Ev
FNDA:2,_ZNSt12_Vector_baseISt10shared_ptrIN7testing8internal26ParameterizedTestSuiteInfoI26ErrorHandlingTestArgumentsE8TestInfoEESaIS7_EED2Ev
FNDA:4,_ZNSt12_Vector_baseI13ArgumentsCaseSaIS0_EE11_M_allocateEm
FNDA:4,_ZNSt12_Vector_baseI9ErrorCaseSaIS0_EE11_M_allocateEm
FNDA:2,_ZNSt12_Vector_baseIN7testing8internal26ParameterizedTestSuiteInfoI21ErrorHandlingHelpTestE17InstantiationInfoESaIS5_EE11_M_allocateEm
FNDA:2,_ZNSt12_Vector_baseIN7testing8internal26ParameterizedTestSuiteInfoI26ErrorHandlingTestArgumentsE17InstantiationInfoESaIS5_EE11_M_allocateEm
FNDA:4,_ZNSt12_Vector_baseIPN7testing8internal30ParameterizedTestSuiteInfoBaseESaIS3_EE11_M_allocateEm
FNDA:2,_ZNSt12_Vector_baseISt10shared_ptrIN7testing8internal26ParameterizedTestSuiteInfoI21ErrorHandlingHelpTestE8TestInfoEESaIS7_EE11_M_allocateEm
FNDA:2,_ZNSt12_Vector_baseISt10shared_ptrIN7testing8internal26ParameterizedTestSuiteInfoI26ErrorHandlingTestArgumentsE8TestInfoEESaIS7_EE11_M_allocateEm
FNDA:4,_ZNSt12_Vector_baseI13ArgumentsCaseSaIS0_EE13_M_deallocateEPS0_m
FNDA:4,_ZNSt12_Vector_baseI9ErrorCaseSaIS0_EE13_M_deallocateEPS0_m
FNDA:4,_ZNSt12_Vector_baseIN7testing8internal26ParameterizedTestSuiteInfoI21ErrorHandlingHelpTestE17InstantiationInfoESaIS5_EE13_M_deallocateEPS5_m
FNDA:4,_ZNSt12_Vector_baseIN7testing8internal26ParameterizedTestSuiteInfoI26ErrorHandlingTestArgumentsE17InstantiationInfoESaIS5_EE13_M_deallocateEPS5_m
FNDA:4,_ZNSt12_Vector_baseIPN7testing8internal30ParameterizedTestSuiteInfoBaseESaIS3_EE13_M_deallocateEPS3_m
FNDA:4,_ZNSt12_Vector_baseISt10shared_ptrIN7testing8internal26ParameterizedTestSuiteInfoI21ErrorHandlingHelpTestE8TestInfoEESaIS7_EE13_M_deallocateEPS7_m
FNDA:4,_ZNSt12_Vector_baseISt10shared_ptrIN7testing8internal26ParameterizedTestSuiteInfoI26ErrorHandlingTestArgumentsE8TestInfoEESaIS7_EE13_M_deallocateEPS7_m
FNDA:4,_ZNSt6vectorIN7testing8internal26ParameterizedTestSuiteInfoI21ErrorHandlingHelpTestE17InstantiationInfoESaIS5_EE11_S_relocateEPS5_S8_S8_RS6_
FNDA:4,_ZNSt6vectorIN7testing8internal26ParameterizedTestSuiteInfoI26ErrorHandlingTestArgumentsE17InstantiationInfoESaIS5_EE11_S_relocateEPS5_S8_S8_RS6_
FNDA:8,_ZNSt6vectorIPN7testing8internal30ParameterizedTestSuiteInfoBaseESaIS3_EE11_S_relocateEPS3_S6_S6_RS4_
FNDA:4,_ZNSt6vectorISt10shared_ptrIN7testing8internal26ParameterizedTestSuiteInfoI21ErrorHandlingHelpTestE8TestInfoEESaIS7_EE11_S_relocateEPS7_SA_SA_RS8_
FNDA:4,_ZNSt6vectorISt10shared_ptrIN7testing8internal26ParameterizedTestSuiteInfoI26ErrorHandlingTestArgumentsE8TestInfoEESaIS7_EE11_S_relocateEPS7_SA_SA_RS8_
FNDA:2,_ZNSt6vectorIN7testing8internal26ParameterizedTestSuiteInfoI21ErrorHandlingHelpTestE17InstantiationInfoESaIS5_EEC2Ev
FNDA:2,_ZNSt6vectorIN7testing8internal26ParameterizedTestSuiteInfoI26ErrorHandlingTestArgumentsE17InstantiationInfoESaIS5_EEC2Ev
FNDA:2,_ZNSt6vectorISt10shared_ptrIN7testing8internal26ParameterizedTestSuiteInfoI21ErrorHandlingHelpTestE8TestInfoEESaIS7_EEC2Ev
FNDA:2,_ZNSt6vectorISt10shared_ptrIN7testing8internal26ParameterizedTestSuiteInfoI26ErrorHandlingTestArgumentsE8TestInfoEESaIS7_EEC2Ev
FNDA:2,_ZNSt6vectorI13ArgumentsCaseSaIS0_EEC2ESt16initializer_listIS0_ERKS1_
FNDA:2,_ZNSt6vectorI9ErrorCaseSaIS0_EEC2ESt16initializer_listIS0_ERKS1_
FNDA:2,_ZNSt6vectorI13ArgumentsCaseSaIS0_EEC2IN9__gnu_cxx17__normal_iteratorIPKS0_S2_EEvEET_S9_RKS1_
FNDA:2,_ZNSt6vectorI9ErrorCaseSaIS0_EEC2IN9__gnu_cxx17__normal_iteratorIPKS0_S2_EEvEET_S9_RKS1_
FNDA:4,_ZNSt6vectorI13ArgumentsCaseSaIS0_EED2Ev
FNDA:4,_ZNSt6vectorI9ErrorCaseSaIS0_EED2Ev
FNDA:2,_ZNSt6vectorIN7testing8internal26ParameterizedTestSuiteInfoI21ErrorHandlingHelpTestE17InstantiationInfoESaIS5_EED2Ev
FNDA:2,_ZNSt6vectorIN7testing8internal26ParameterizedTestSuiteInfoI26ErrorHandlingTestArgumentsE17InstantiationInfoESaIS5_EED2Ev
FNDA:2,_ZNSt6vectorISt10shared_ptrIN7testing8internal26ParameterizedTestSuiteInfoI21ErrorHandlingHelpTestE8TestInfoEESaIS7_EED2Ev
FNDA:2,_ZNSt6vectorISt10shared_ptrIN7testing8internal26ParameterizedTestSuiteInfoI26ErrorHandlingTestArgumentsE8TestInfoEESaIS7_EED2Ev
FNDA:4,_ZNSt6vectorIN7testing8internal26ParameterizedTestSuiteInfoI21ErrorHandlingHelpTestE17InstantiationInfoESaIS5_EE5beginEv
FNDA:4,_ZNSt6vectorIN7testing8internal26ParameterizedTestSuiteInfoI26ErrorHandlingTestArgumentsE17InstantiationInfoESaIS5_EE5beginEv
FNDA:12,_ZNSt6vectorIPN7testing8internal30ParameterizedTestSuiteInfoBaseESaIS3_EE5beginEv
FNDA:4,_ZNSt6vectorISt10shared_ptrIN7testing8internal26ParameterizedTestSuiteInfoI21ErrorHandlingHelpTestE8TestInfoEESaIS7_EE5beginEv
FNDA:4,_ZNSt6vectorISt10shared_ptrIN7testing8internal26ParameterizedTestSuiteInfoI26ErrorHandlingTestArgumentsE8TestInfoEESaIS7_EE5beginEv
FNDA:4,_ZNKSt6vectorI13ArgumentsCaseSaIS0_EE5beginEv
FNDA:4,_ZNKSt6vectorI9ErrorCaseSaIS0_EE5beginEv
FNDA:0,_ZNKSt6vectorISt10shared_ptrIN7testing8internal26ParameterizedTestSuiteInfoI21ErrorHandlingHelpTestE8TestInfoEESaIS7_EE5beginEv
FNDA:0,_ZNKSt6vectorISt10shared_ptrIN7testing8internal26ParameterizedTestSuiteInfoI26ErrorHandlingTestArgumentsE8TestInfoEESaIS7_EE5beginEv
FNDA:8,_ZNSt6vectorIN7testing8internal26ParameterizedTestSuiteInfoI21ErrorHandlingHelpTestE17InstantiationInfoESaIS5_EE3endEv
FNDA:8,_ZNSt6vectorIN7testing8internal26ParameterizedTestSuiteInfoI26ErrorHandlingTestArgumentsE17InstantiationInfoESaIS5_EE3endEv
FNDA:16,_ZNSt6vectorIPN7testing8internal30ParameterizedTestSuiteInfoBaseESaIS3_EE3endEv
FNDA:8,_ZNSt6vectorISt10shared_ptrIN7testing8internal26ParameterizedTestSuiteInfoI21ErrorHandlingHelpTestE8TestInfoEESaIS7_EE3endEv
FNDA:8,_ZNSt6vectorISt10shared_ptrIN7testing8internal26ParameterizedTestSuiteInfoI26ErrorHandlingTestArgumentsE8TestInfoEESaIS7_EE3endEv
FNDA:24,_ZNKSt6vectorI13ArgumentsCaseSaIS0_EE3endEv
FNDA:18,_ZNKSt6vectorI9ErrorCaseSaIS0_EE3endEv
FNDA:0,_ZNKSt6vectorISt10shared_ptrIN7testing8internal26ParameterizedTestSuiteInfoI21ErrorHandlingHelpTestE8TestInfoEESaIS7_EE3endEv
FNDA:0,_ZNKSt6vectorISt10shared_ptrIN7testing8internal26ParameterizedTestSuiteInfoI26ErrorHandlingTestArgumentsE8TestInfoEESaIS7_EE3endEv
FNDA:4,_ZNSt12_Vector_baseI13ArgumentsCaseSaIS0_EE17_Vector_impl_dataC2Ev
FNDA:4,_ZNSt12_Vector_baseI9ErrorCaseSaIS0_EE17_Vector_impl_dataC2Ev
FNDA:2,_ZNSt12_Vector_baseIN7testing8internal26ParameterizedTestSuiteInfoI21ErrorHandlingHelpTestE17InstantiationInfoESaIS5_EE17_Vector_impl_dataC2Ev
FNDA:2,_ZNSt12_Vector_baseIN7testing8internal26ParameterizedTestSuiteInfoI26ErrorHandlingTestArgumentsE17InstantiationInfoESaIS5_EE17_Vector_impl_dataC2Ev
FNDA:2,_ZNSt12_Vector_baseISt10shared_ptrIN7testing8internal26ParameterizedTestSuiteInfoI21ErrorHandlingHelpTestE8TestInfoEESaIS7_EE17_Vector_impl_dataC2Ev
FNDA:2,_ZNSt12_Vector_baseISt10shared_ptrIN7testing8internal26ParameterizedTestSuiteInfoI26ErrorHandlingTestArgumentsE8TestInfoEESaIS7_EE17_Vector_impl_dataC2Ev
FNDA:8,_ZNKSt6vectorIN7testing8internal26ParameterizedTestSuiteInfoI21ErrorHandlingHelpTestE17InstantiationInfoESaIS5_EE4sizeEv
FNDA:8,_ZNKSt6vectorIN7testing8internal26ParameterizedTestSuiteInfoI26ErrorHandlingTestArgumentsE17InstantiationInfoESaIS5_EE4sizeEv
FNDA:16,_ZNKSt6vectorIPN7testing8internal30ParameterizedTestSuiteInfoBaseESaIS3_EE4sizeEv
FNDA:8,_ZNKSt6vectorISt10shared_ptrIN7testing8internal26ParameterizedTestSuiteInfoI21ErrorHandlingHelpTestE8TestInfoEESaIS7_EE4sizeEv
FNDA:8,_ZNKSt6vectorISt10shared_ptrIN7testing8internal26ParameterizedTestSuiteInfoI26ErrorHandlingTestArgumentsE8TestInfoEESaIS7_EE4sizeEv
FNDA:4,_ZNKSt6vectorIN7testing8internal26ParameterizedTestSuiteInfoI21ErrorHandlingHelpTestE17InstantiationInfoESaIS5_EE8max_sizeEv
FNDA:4,_ZNKSt6vectorIN7testing8internal26ParameterizedTestSuiteInfoI26ErrorHandlingTestArgumentsE17InstantiationInfoESaIS5_EE8max_sizeEv
FNDA:8,_ZNKSt6vectorIPN7testing8internal30ParameterizedTestSuiteInfoBaseESaIS3_EE8max_sizeEv
FNDA:4,_ZNKSt6vectorISt10shared_ptrIN7testing8internal26ParameterizedTestSuiteInfoI21ErrorHandlingHelpTestE8TestInfoEESaIS7_EE8max_sizeEv
FNDA:4,_ZNKSt6vectorISt10shared_ptrIN7testing8internal26ParameterizedTestSuiteInfoI26ErrorHandlingTestArgumentsE8TestInfoEESaIS7_EE8max_sizeEv
FNF:127
FNH:121
DA:99,16
DA:100,16
DA:101,16
DA:137,8
DA:142,8
DA:143,8
DA:146,8
DA:147,8
DA:148,8
DA:301,56
DA:302,56
DA:306,24
DA:307,24
DA:315,8
DA:321,8
DA:322,8
DA:367,16
DA:369,16
DA:370,16
DA:371,16
DA:378,20
DA:381,40
DA:386,28
DA:389,28
DA:390,18
DA:391,28
DA:504,24
DA:509,24
DA:531,8
DA:678,4
DA:680,4
DA:682,4
DA:683,4
DA:684,4
DA:707,4
DA:709,4
DA:711,4
DA:712,4
DA:713,4
DA:733,16
DA:735,16
DA:736,16
DA:738,16
DA:873,28
DA:874,28
DA:883,8
DA:884,8
DA:893,48
DA:894,48
DA:903,42
DA:904,42
DA:992,48
DA:993,48
DA:998,24
DA:999,24
DA:1088,0
DA:1089,0
DA:1233,12
DA:1236,12
DA:1298,12
DA:1299,12
DA:1687,8
DA:1690,8
DA:1692,8
DA:1693,8
DA:1694,8
DA:1695,8
DA:1697,8
DA:1698,8
DA:1896,12
DA:1898,12
DA:1899,0
DA:1901,12
DA:1902,12
DA:1907,8
DA:1909,8
DA:1910,0
DA:1912,8
DA:1916,32
DA:1921,32
DA:1923,32
DA:1924,32
LF:82
LH:78
end_of_record
TN:
SF:/usr/include/c++/13/bits/unique_ptr.h
FN:174,174,_ZNSt15__uniq_ptr_implIK13ArgumentsCaseSt14default_deleteIS1_EEC2Ev
FN:174,174,_ZNSt15__uniq_ptr_implIK9ErrorCaseSt14default_deleteIS1_EEC2Ev
FN:176,176,_ZNSt15__uniq_ptr_implIN7testing8internal19TestMetaFactoryBaseI13ArgumentsCaseEESt14default_deleteIS4_EEC2EPS4_
FN:176,176,_ZNSt15__uniq_ptr_implIN7testing8internal19TestMetaFactoryBaseI9ErrorCaseEESt14default_deleteIS4_EEC2EPS4_
FN:176,176,_ZNSt15__uniq_ptr_implIN7testing8internal22ParamIteratorInterfaceI13ArgumentsCaseEESt14default_deleteIS4_EEC2EPS4_
FN:176,176,_ZNSt15__uniq_ptr_implIN7testing8internal22ParamIteratorInterfaceI9ErrorCaseEESt14default_deleteIS4_EEC2EPS4_
FN:197,197,_ZNSt15__uniq_ptr_implIK13ArgumentsCaseSt14default_deleteIS1_EE6_M_ptrEv
FN:197,197,_ZNSt15__uniq_ptr_implIK9ErrorCaseSt14default_deleteIS1_EE6_M_ptrEv
FN:197,197,_ZNSt15__uniq_ptr_implIN7testing8internal19TestMetaFactoryBaseI13ArgumentsCaseEESt14default_deleteIS4_EE6_M_ptrEv
FN:197,197,_ZNSt15__uniq_ptr_implIN7testing8internal19TestMetaFactoryBaseI9ErrorCaseEESt14default_deleteIS4_EE6_M_ptrEv
FN:197,197,_ZNSt15__uniq_ptr_implIN7testing8internal22ParamIteratorInterfaceI13ArgumentsCaseEESt14default_deleteIS4_EE6_M_ptrEv
FN:197,197,_ZNSt15__uniq_ptr_implIN7testing8internal22ParamIteratorInterfaceI9ErrorCaseEESt14default_deleteIS4_EE6_M_ptrEv
FN:197,197,_ZNSt15__uniq_ptr_implINSt7__cxx1112basic_stringIcSt11char_traitsIcESaIcEEESt14default_deleteIS5_EE6_M_ptrEv
FN:197,197,_ZNSt15__uniq_ptr_implINSt7__cxx1118basic_stringstreamIcSt11char_traitsIcESaIcEEESt14default_deleteIS5_EE6_M_ptrEv
FN:199,199,_ZNKSt15__uniq_ptr_implIK13ArgumentsCaseSt14default_deleteIS1_EE6_M_ptrEv
FN:199,199,_ZNKSt15__uniq_ptr_implIK9ErrorCaseSt14default_deleteIS1_EE6_M_ptrEv
FN:199,199,_ZNKSt15__uniq_ptr_implIN7testing8internal19TestMetaFactoryBaseI13ArgumentsCaseEESt14default_deleteIS4_EE6_M_ptrEv
FN:199,199,_ZNKSt15__uniq_ptr_implIN7testing8internal19TestMetaFactoryBaseI9ErrorCaseEESt14default_deleteIS4_EE6_M_ptrEv
FN:199,199,_ZNKSt15__uniq_ptr_implIN7testing8internal22ParamIteratorInterfaceI13ArgumentsCaseEESt14default_deleteIS4_EE6_M_ptrEv
FN:199,199,_ZNKSt15__uniq_ptr_implIN7testing8internal22ParamIteratorInterfaceI9ErrorCaseEESt14default_deleteIS4_EE6_M_ptrEv
FN:199,199,_ZNKSt15__uniq_ptr_implINSt7__cxx1112basic_stringIcSt11char_traitsIcESaIcEEESt14default_deleteIS5_EE6_M_ptrEv
FN:199,199,_ZNKSt15__uniq_ptr_implINSt7__cxx1118basic_stringstreamIcSt11char_traitsIcESaIcEEESt14default_deleteIS5_EE6_M_ptrEv
FN:201,201,_ZNSt15__uniq_ptr_implIK13ArgumentsCaseSt14default_deleteIS1_EE10_M_deleterEv
FN:201,201,_ZNSt15__uniq_ptr_implIK9ErrorCaseSt14default_deleteIS1_EE10_M_deleterEv
FN:201,201,_ZNSt15__uniq_ptr_implIN7testing8internal19TestMetaFactoryBaseI13ArgumentsCaseEESt14default_deleteIS4_EE10_M_deleterEv
FN:201,201,_ZNSt15__uniq_ptr_implIN7testing8internal19TestMetaFactoryBaseI9ErrorCaseEESt14default_deleteIS4_EE10_M_deleterEv
FN:201,201,_ZNSt15__uniq_ptr_implIN7testing8internal22ParamIteratorInterfaceI13ArgumentsCaseEESt14default_deleteIS4_EE10_M_deleterEv
FN:201,201,_ZNSt15__uniq_ptr_implIN7testing8internal22ParamIteratorInterfaceI9ErrorCaseEESt14default_deleteIS4_EE10_M_deleterEv
FN:201,201,_ZNSt15__uniq_ptr_implINSt7__cxx1112basic_stringIcSt11char_traitsIcESaIcEEESt14default_deleteIS5_EE10_M_deleterEv
FN:201,201,_ZNSt15__uniq_ptr_implINSt7__cxx1118basic_stringstreamIcSt11char_traitsIcESaIcEEESt14default_deleteIS5_EE10_M_deleterEv
FN:206,212,_ZNSt15__uniq_ptr_implIK13ArgumentsCaseSt14default_deleteIS1_EE5resetEPS1_
FN:206,212,_ZNSt15__uniq_ptr_implIK9ErrorCaseSt14default_deleteIS1_EE5resetEPS1_
FN:304,306,_ZNSt10unique_ptrIK13ArgumentsCaseSt14default_deleteIS1_EEC2IS3_vEEv
FN:304,306,_ZNSt10unique_ptrIK9ErrorCaseSt14default_deleteIS1_EEC2IS3_vEEv
FN:317,319,_ZNSt10unique_ptrIN7testing8internal19TestMetaFactoryBaseI13ArgumentsCaseEESt14default_deleteIS4_EEC2IS6_vEEPS4_
FN:317,319,_ZNSt10unique_ptrIN7testing8internal19TestMetaFactoryBaseI9ErrorCaseEESt14default_deleteIS4_EEC2IS6_vEEPS4_
FN:317,319,_ZNSt10unique_ptrIN7testing8internal22ParamIteratorInterfaceI13ArgumentsCaseEESt14default_deleteIS4_EEC2IS6_vEEPS4_
FN:317,319,_ZNSt10unique_ptrIN7testing8internal22ParamIteratorInterfaceI9ErrorCaseEESt14default_deleteIS4_EEC2IS6_vEEPS4_
FN:398,406,_ZNSt10unique_ptrIK13ArgumentsCaseSt14default_deleteIS1_EED2Ev
FN:398,406,_ZNSt10unique_ptrIK9ErrorCaseSt14default_deleteIS1_EED2Ev
FN:398,406,_ZNSt10unique_ptrIN7testing8internal19TestMetaFactoryBaseI13ArgumentsCaseEESt14default_deleteIS4_EED2Ev
FN:398,406,_ZNSt10unique_ptrIN7testing8internal19TestMetaFactoryBaseI9ErrorCaseEESt14default_deleteIS4_EED2Ev
FN:398,406,_ZNSt10unique_ptrIN7testing8internal22ParamIteratorInterfaceI13ArgumentsCaseEESt14default_deleteIS4_EED2Ev
FN:398,406,_ZNSt10unique_ptrIN7testing8internal22ParamIteratorInterfaceI9ErrorCaseEESt14default_deleteIS4_EED2Ev
FN:398,406,_ZNSt10unique_ptrINSt7__cxx1112basic_stringIcSt11char_traitsIcESaIcEEESt14default_deleteIS5_EED2Ev
FN:398,406,_ZNSt10unique_ptrINSt7__cxx1118basic_stringstreamIcSt11char_traitsIcESaIcEEESt14default_deleteIS5_EED2Ev
FN:451,455,_ZNKSt10unique_ptrIN7testing8internal22ParamIteratorInterfaceI13ArgumentsCaseEESt14default_deleteIS4_EEdeEv
FN:451,455,_ZNKSt10unique_ptrIN7testing8internal22ParamIteratorInterfaceI9ErrorCaseEESt14default_deleteIS4_EEdeEv
FN:451,455,_ZNKSt10unique_ptrINSt7__cxx1118basic_stringstreamIcSt11char_traitsIcESaIcEEESt14default_deleteIS5_EEdeEv
FN:460,464,_ZNKSt10unique_ptrIN7testing8internal19TestMetaFactoryBaseI13ArgumentsCaseEESt14default_deleteIS4_EEptEv
FN:460,464,_ZNKSt10unique_ptrIN7testing8internal19TestMetaFactoryBaseI9ErrorCaseEESt14default_deleteIS4_EEptEv
FN:460,464,_ZNKSt10unique_ptrIN7testing8internal22ParamIteratorInterfaceI13ArgumentsCaseEESt14default_deleteIS4_EEptEv
FN:460,464,_ZNKSt10unique_ptrIN7testing8internal22ParamIteratorInterfaceI9ErrorCaseEESt14default_deleteIS4_EEptEv
FN:460,464,_ZNKSt10unique_ptrINSt7__cxx1112basic_stringIcSt11char_traitsIcESaIcEEESt14default_deleteIS5_EEptEv
FN:469,470,_ZNKSt10unique_ptrIK13ArgumentsCaseSt14default_deleteIS1_EE3getEv
FN:469,470,_ZNKSt10unique_ptrIK9ErrorCaseSt14default_deleteIS1_EE3getEv
FN:469,470,_ZNKSt10unique_ptrIN7testing8internal19TestMetaFactoryBaseI13ArgumentsCaseEESt14default_deleteIS4_EE3getEv
FN:469,470,_ZNKSt10unique_ptrIN7testing8internal19TestMetaFactoryBaseI9ErrorCaseEESt14default_deleteIS4_EE3getEv
FN:469,470,_ZNKSt10unique_ptrIN7testing8internal22ParamIteratorInterfaceI13ArgumentsCaseEESt14default_deleteIS4_EE3getEv
FN:469,470,_ZNKSt10unique_ptrIN7testing8internal22ParamIteratorInterfaceI9ErrorCaseEESt14default_deleteIS4_EE3getEv
FN:469,470,_ZNKSt10unique_ptrINSt7__cxx1112basic_stringIcSt11char_traitsIcESaIcEEESt14default_deleteIS5_EE3getEv
FN:469,470,_ZNKSt10unique_ptrINSt7__cxx1118basic_stringstreamIcSt11char_traitsIcESaIcEEESt14default_deleteIS5_EE3getEv
FN:475,476,_ZNSt10unique_ptrIK13ArgumentsCaseSt14default_deleteIS1_EE11get_deleterEv
FN:475,476,_ZNSt10unique_ptrIK9ErrorCaseSt14default_deleteIS1_EE11get_deleterEv
FN:475,476,_ZNSt10unique_ptrIN7testing8internal19TestMetaFactoryBaseI13ArgumentsCaseEESt14default_deleteIS4_EE11get_deleterEv
FN:475,476,_ZNSt10unique_ptrIN7testing8internal19TestMetaFactoryBaseI9ErrorCaseEESt14default_deleteIS4_EE11get_deleterEv
FN:475,476,_ZNSt10unique_ptrIN7testing8internal22ParamIteratorInterfaceI13ArgumentsCaseEESt14default_deleteIS4_EE11get_deleterEv
FN:475,476,_ZNSt10unique_ptrIN7testing8internal22ParamIteratorInterfaceI9ErrorCaseEESt14default_deleteIS4_EE11get_deleterEv
FN:475,476,_ZNSt10unique_ptrINSt7__cxx1112basic_stringIcSt11char_traitsIcESaIcEEESt14default_deleteIS5_EE11get_deleterEv
FN:475,476,_ZNSt10unique_ptrINSt7__cxx1118basic_stringstreamIcSt11char_traitsIcESaIcEEESt14default_deleteIS5_EE11get_deleterEv
FN:486,487,_ZNKSt10unique_ptrINSt7__cxx1112basic_stringIcSt11char_traitsIcESaIcEEESt14default_deleteIS5_EEcvbEv
FN:505,510,_ZNSt10unique_ptrIK13ArgumentsCaseSt14default_deleteIS1_EE5resetEPS1_
FN:505,510,_ZNSt10unique_ptrIK9ErrorCaseSt14default_deleteIS1_EE5resetEPS1_
FN:861,862,_ZStneINSt7__cxx1112basic_stringIcSt11char_traitsIcESaIcEEESt14default_deleteIS5_EEbRKSt10unique_ptrIT_T0_EDn
FN:93,100,_ZNKSt14default_deleteIK13ArgumentsCaseEclEPS1_
FN:93,100,_ZNKSt14default_deleteIK9ErrorCaseEclEPS1_
FN:93,100,_ZNKSt14default_deleteIN7testing8internal19TestMetaFactoryBaseI13ArgumentsCaseEEEclEPS4_
FN:93,100,_ZNKSt14default_deleteIN7testing8internal19TestMetaFactoryBaseI9ErrorCaseEEEclEPS4_
FN:93,100,_ZNKSt14default_deleteIN7testing8internal22ParamIteratorInterfaceI13ArgumentsCaseEEEclEPS4_
FN:93,100,_ZNKSt14default_deleteIN7testing8internal22ParamIteratorInterfaceI9ErrorCaseEEEclEPS4_
FN:93,100,_ZNKSt14default_deleteINSt7__cxx1112basic_stringIcSt11char_traitsIcESaIcEEEEclEPS5_
FN:93,100,_ZNKSt14default_deleteINSt7__cxx1118basic_stringstreamIcSt11char_traitsIcESaIcEEEEclEPS5_
FNDA:24,_ZNSt15__uniq_ptr_implIK13ArgumentsCaseSt14default_deleteIS1_EEC2Ev
FNDA:18,_ZNSt15__uniq_ptr_implIK9ErrorCaseSt14default_deleteIS1_EEC2Ev
FNDA:2,_ZNSt15__uniq_ptr_implIN7testing8internal19TestMetaFactoryBaseI13ArgumentsCaseEESt14default_deleteIS4_EEC2EPS4_
FNDA:2,_ZNSt15__uniq_ptr_implIN7testing8internal19TestMetaFactoryBaseI9ErrorCaseEESt14default_deleteIS4_EEC2EPS4_
FNDA:24,_ZNSt15__uniq_ptr_implIN7testing8internal22ParamIteratorInterfaceI13ArgumentsCaseEESt14default_deleteIS4_EEC2EPS4_
FNDA:18,_ZNSt15__uniq_ptr_implIN7testing8internal22ParamIteratorInterfaceI9ErrorCaseEESt14default_deleteIS4_EEC2EPS4_
FNDA:104,_ZNSt15__uniq_ptr_implIK13ArgumentsCaseSt14default_deleteIS1_EE6_M_ptrEv
FNDA:74,_ZNSt15__uniq_ptr_implIK9ErrorCaseSt14default_deleteIS1_EE6_M_ptrEv
FNDA:4,_ZNSt15__uniq_ptr_implIN7testing8internal19TestMetaFactoryBaseI13ArgumentsCaseEESt14default_deleteIS4_EE6_M_ptrEv
FNDA:4,_ZNSt15__uniq_ptr_implIN7testing8internal19TestMetaFactoryBaseI9ErrorCaseEESt14default_deleteIS4_EE6_M_ptrEv
FNDA:48,_ZNSt15__uniq_ptr_implIN7testing8internal22ParamIteratorInterfaceI13ArgumentsCaseEESt14default_deleteIS4_EE6_M_ptrEv
FNDA:36,_ZNSt15__uniq_ptr_implIN7testing8internal22ParamIteratorInterfaceI9ErrorCaseEESt14default_deleteIS4_EE6_M_ptrEv
FNDA:32,_ZNSt15__uniq_ptr_implINSt7__cxx1112basic_stringIcSt11char_traitsIcESaIcEEESt14default_deleteIS5_EE6_M_ptrEv
FNDA:68,_ZNSt15__uniq_ptr_implINSt7__cxx1118basic_stringstreamIcSt11char_traitsIcESaIcEEESt14default_deleteIS5_EE6_M_ptrEv
FNDA:120,_ZNKSt15__uniq_ptr_implIK13ArgumentsCaseSt14default_deleteIS1_EE6_M_ptrEv
FNDA:84,_ZNKSt15__uniq_ptr_implIK9ErrorCaseSt14default_deleteIS1_EE6_M_ptrEv
FNDA:20,_ZNKSt15__uniq_ptr_implIN7testing8internal19TestMetaFactoryBaseI13ArgumentsCaseEESt14default_deleteIS4_EE6_M_ptrEv
FNDA:14,_ZNKSt15__uniq_ptr_implIN7testing8internal19TestMetaFactoryBaseI9ErrorCaseEESt14default_deleteIS4_EE6_M_ptrEv
FNDA:168,_ZNKSt15__uniq_ptr_implIN7testing8internal22ParamIteratorInterfaceI13ArgumentsCaseEESt14default_deleteIS4_EE6_M_ptrEv
FNDA:120,_ZNKSt15__uniq_ptr_implIN7testing8internal22ParamIteratorInterfaceI9ErrorCaseEESt14default_deleteIS4_EE6_M_ptrEv
FNDA:0,_ZNKSt15__uniq_ptr_implINSt7__cxx1112basic_stringIcSt11char_traitsIcESaIcEEESt14default_deleteIS5_EE6_M_ptrEv
FNDA:136,_ZNKSt15__uniq_ptr_implINSt7__cxx1118basic_stringstreamIcSt11char_traitsIcESaIcEEESt14default_deleteIS5_EE6_M_ptrEv
FNDA:20,_ZNSt15__uniq_ptr_implIK13ArgumentsCaseSt14default_deleteIS1_EE10_M_deleterEv
FNDA:14,_ZNSt15__uniq_ptr_implIK9ErrorCaseSt14default_deleteIS1_EE10_M_deleterEv
FNDA:2,_ZNSt15__uniq_ptr_implIN7testing8internal19TestMetaFactoryBaseI13ArgumentsCaseEESt14default_deleteIS4_EE10_M_deleterEv
FNDA:2,_ZNSt15__uniq_ptr_implIN7testing8internal19TestMetaFactoryBaseI9ErrorCaseEESt14default_deleteIS4_EE10_M_deleterEv
FNDA:24,_ZNSt15__uniq_ptr_implIN7testing8internal22ParamIteratorInterfaceI13ArgumentsCaseEESt14default_deleteIS4_EE10_M_deleterEv
FNDA:18,_ZNSt15__uniq_ptr_implIN7testing8internal22ParamIteratorInterfaceI9ErrorCaseEESt14default_deleteIS4_EE10_M_deleterEv
FNDA:0,_ZNSt15__uniq_ptr_implINSt7__cxx1112basic_stringIcSt11char_traitsIcESaIcEEESt14default_deleteIS5_EE10_M_deleterEv
FNDA:68,_ZNSt15__uniq_ptr_implINSt7__cxx1118basic_stringstreamIcSt11char_traitsIcESaIcEEESt14default_deleteIS5_EE10_M_deleterEv
FNDA:40,_ZNSt15__uniq_ptr_implIK13ArgumentsCaseSt14default_deleteIS1_EE5resetEPS1_
FNDA:28,_ZNSt15__uniq_ptr_implIK9ErrorCaseSt14default_deleteIS1_EE5resetEPS1_
FNDA:24,_ZNSt10unique_ptrIK13ArgumentsCaseSt14default_deleteIS1_EEC2IS3_vEEv
FNDA:18,_ZNSt10unique_ptrIK9ErrorCaseSt14default_deleteIS1_EEC2IS3_vEEv
FNDA:2,_ZNSt10unique_ptrIN7testing8internal19TestMetaFactoryBaseI13ArgumentsCaseEESt14default_deleteIS4_EEC2IS6_vEEPS4_
FNDA:2,_ZNSt10unique_ptrIN7testing8internal19TestMetaFactoryBaseI9ErrorCaseEESt14default_deleteIS4_EEC2IS6_vEEPS4_
FNDA:24,_ZNSt10unique_ptrIN7testing8internal22ParamIteratorInterfaceI13ArgumentsCaseEESt14default_deleteIS4_EEC2IS6_vEEPS4_
FNDA:18,_ZNSt10unique_ptrIN7testing8internal22ParamIteratorInterfaceI9ErrorCaseEESt14default_deleteIS4_EEC2IS6_vEEPS4_
FNDA:24,_ZNSt10unique_ptrIK13ArgumentsCaseSt14default_deleteIS1_EED2Ev
FNDA:18,_ZNSt10unique_ptrIK9ErrorCaseSt14default_deleteIS1_EED2Ev
FNDA:2,_ZNSt10unique_ptrIN7testing8internal19TestMetaFactoryBaseI13ArgumentsCaseEESt14default_deleteIS4_EED2Ev
FNDA:2,_ZNSt10unique_ptrIN7testing8internal19TestMetaFactoryBaseI9ErrorCaseEESt14default_deleteIS4_EED2Ev
FNDA:24,_ZNSt10unique_ptrIN7testing8internal22ParamIteratorInterfaceI13ArgumentsCaseEESt14default_deleteIS4_EED2Ev
FNDA:18,_ZNSt10unique_ptrIN7testing8internal22ParamIteratorInterfaceI9ErrorCaseEESt14default_deleteIS4_EED2Ev
FNDA:32,_ZNSt10unique_ptrINSt7__cxx1112basic_stringIcSt11char_traitsIcESaIcEEESt14default_deleteIS5_EED2Ev
FNDA:68,_ZNSt10unique_ptrINSt7__cxx1118basic_stringstreamIcSt11char_traitsIcESaIcEEESt14default_deleteIS5_EED2Ev
FNDA:22,_ZNKSt10unique_ptrIN7testing8internal22ParamIteratorInterfaceI13ArgumentsCaseEESt14default_deleteIS4_EEdeEv
FNDA:16,_ZNKSt10unique_ptrIN7testing8internal22ParamIteratorInterfaceI9ErrorCaseEESt14default_deleteIS4_EEdeEv
FNDA:136,_ZNKSt10unique_ptrINSt7__cxx1118basic_stringstreamIcSt11char_traitsIcESaIcEEESt14default_deleteIS5_EEdeEv
FNDA:20,_ZNKSt10unique_ptrIN7testing8internal19TestMetaFactoryBaseI13ArgumentsCaseEESt14default_deleteIS4_EEptEv
FNDA:14,_ZNKSt10unique_ptrIN7testing8internal19TestMetaFactoryBaseI9ErrorCaseEESt14default_deleteIS4_EEptEv
FNDA:102,_ZNKSt10unique_ptrIN7testing8internal22ParamIteratorInterfaceI13ArgumentsCaseEESt14default_deleteIS4_EEptEv
FNDA:72,_ZNKSt10unique_ptrIN7testing8internal22ParamIteratorInterfaceI9ErrorCaseEESt14default_deleteIS4_EEptEv
FNDA:0,_ZNKSt10unique_ptrINSt7__cxx1112basic_stringIcSt11char_traitsIcESaIcEEESt14default_deleteIS5_EEptEv
FNDA:120,_ZNKSt10unique_ptrIK13ArgumentsCaseSt14default_deleteIS1_EE3getEv
FNDA:84,_ZNKSt10unique_ptrIK9ErrorCaseSt14default_deleteIS1_EE3getEv
FNDA:20,_ZNKSt10unique_ptrIN7testing8internal19TestMetaFactoryBaseI13ArgumentsCaseEESt14default_deleteIS4_EE3getEv
FNDA:14,_ZNKSt10unique_ptrIN7testing8internal19TestMetaFactoryBaseI9ErrorCaseEESt14default_deleteIS4_EE3getEv
FNDA:168,_ZNKSt10unique_ptrIN7testing8internal22ParamIteratorInterfaceI13ArgumentsCaseEESt14default_deleteIS4_EE3getEv
FNDA:120,_ZNKSt10unique_ptrIN7testing8internal22ParamIteratorInterfaceI9ErrorCaseEESt14default_deleteIS4_EE3getEv
FNDA:0,_ZNKSt10unique_ptrINSt7__cxx1112basic_stringIcSt11char_traitsIcESaIcEEESt14default_deleteIS5_EE3getEv
FNDA:136,_ZNKSt10unique_ptrINSt7__cxx1118basic_stringstreamIcSt11char_traitsIcESaIcEEESt14default_deleteIS5_EE3getEv
FNDA:0,_ZNSt10unique_ptrIK13ArgumentsCaseSt14default_deleteIS1_EE11get_deleterEv
FNDA:0,_ZNSt10unique_ptrIK9ErrorCaseSt14default_deleteIS1_EE11get_deleterEv
FNDA:2,_ZNSt10unique_ptrIN7testing8internal19TestMetaFactoryBaseI13ArgumentsCaseEESt14default_deleteIS4_EE11get_deleterEv
FNDA:2,_ZNSt10unique_ptrIN7testing8internal19TestMetaFactoryBaseI9ErrorCaseEESt14default_deleteIS4_EE11get_deleterEv
FNDA:24,_ZNSt10unique_ptrIN7testing8internal22ParamIteratorInterfaceI13ArgumentsCaseEESt14default_deleteIS4_EE11get_deleterEv
FNDA:18,_ZNSt10unique_ptrIN7testing8internal22ParamIteratorInterfaceI9ErrorCaseEESt14default_deleteIS4_EE11get_deleterEv
FNDA:0,_ZNSt10unique_ptrINSt7__cxx1112basic_stringIcSt11char_traitsIcESaIcEEESt14default_deleteIS5_EE11get_deleterEv
FNDA:68,_ZNSt10unique_ptrINSt7__cxx1118basic_stringstreamIcSt11char_traitsIcESaIcEEESt14default_deleteIS5_EE11get_deleterEv
FNDA:0,_ZNKSt10unique_ptrINSt7__cxx1112basic_stringIcSt11char_traitsIcESaIcEEESt14default_deleteIS5_EEcvbEv
FNDA:40,_ZNSt10unique_ptrIK13ArgumentsCaseSt14default_deleteIS1_EE5resetEPS1_
FNDA:28,_ZNSt10unique_ptrIK9ErrorCaseSt14default_deleteIS1_EE5resetEPS1_
FNDA:0,_ZStneINSt7__cxx1112basic_stringIcSt11char_traitsIcESaIcEEESt14default_deleteIS5_EEbRKSt10unique_ptrIT_T0_EDn
FNDA:20,_ZNKSt14default_deleteIK13ArgumentsCaseEclEPS1_
FNDA:14,_ZNKSt14default_deleteIK9ErrorCaseEclEPS1_
FNDA:2,_ZNKSt14default_deleteIN7testing8internal19TestMetaFactoryBaseI13ArgumentsCaseEEEclEPS4_
FNDA:2,_ZNKSt14default_deleteIN7testing8internal19TestMetaFactoryBaseI9ErrorCaseEEEclEPS4_
FNDA:24,_ZNKSt14default_deleteIN7testing8internal22ParamIteratorInterfaceI13ArgumentsCaseEEEclEPS4_
FNDA:18,_ZNKSt14default_deleteIN7testing8internal22ParamIteratorInterfaceI9ErrorCaseEEEclEPS4_
FNDA:0,_ZNKSt14default_deleteINSt7__cxx1112basic_stringIcSt11char_traitsIcESaIcEEEEclEPS5_
FNDA:68,_ZNKSt14default_deleteINSt7__cxx1118basic_stringstreamIcSt11char_traitsIcESaIcEEEEclEPS5_
FNF:82
FNH:72
DA:93,148
DA:99,148
DA:100,148
DA:174,42
DA:176,46
DA:197,370
DA:199,662
DA:201,148
DA:206,68
DA:208,68
DA:209,68
DA:210,68
DA:211,34
DA:212,68
DA:304,42
DA:305,42
DA:306,42
DA:317,46
DA:318,46
DA:319,46
DA:398,188
DA:402,188
DA:403,188
DA:404,114
DA:405,188
DA:406,188
DA:451,174
DA:453,174
DA:454,174
DA:460,208
DA:463,208
DA:469,662
DA:470,662
DA:475,114
DA:476,114
DA:486,0
DA:487,0
DA:505,68
DA:509,68
DA:510,68
DA:861,0
DA:862,0
LF:42
LH:38
end_of_record
TN:
SF:/usr/include/c++/13/bits/vector.tcc
FN:111,127,_ZNSt6vectorIN7testing8internal26ParameterizedTestSuiteInfoI21ErrorHandlingHelpTestE17InstantiationInfoESaIS5_EE12emplace_backIJS5_EEERS5_DpOT_
FN:111,127,_ZNSt6vectorIN7testing8internal26ParameterizedTestSuiteInfoI26ErrorHandlingTestArgumentsE17InstantiationInfoESaIS5_EE12emplace_backIJS5_EEERS5_DpOT_
FN:111,127,_ZNSt6vectorIPN7testing8internal30ParameterizedTestSuiteInfoBaseESaIS3_EE12emplace_backIJS3_EEERS3_DpOT_
FN:111,127,_ZNSt6vectorISt10shared_ptrIN7testing8internal26ParameterizedTestSuiteInfoI21ErrorHandlingHelpTestE8TestInfoEESaIS7_EE12emplace_backIJS7_EEERS7_DpOT_
FN:111,127,_ZNSt6vectorISt10shared_ptrIN7testing8internal26ParameterizedTestSuiteInfoI26ErrorHandlingTestArgumentsE8TestInfoEESaIS7_EE12emplace_backIJS7_EEERS7_DpOT_
FN:445,524,_ZNSt6vectorIN7testing8internal26ParameterizedTestSuiteInfoI21ErrorHandlingHelpTestE17InstantiationInfoESaIS5_EE17_M_realloc_insertIJS5_EEEvN9__gnu_cxx17__normal_iteratorIPS5_S7_EEDpOT_
FN:445,524,_ZNSt6vectorIN7testing8internal26ParameterizedTestSuiteInfoI26ErrorHandlingTestArgumentsE17InstantiationInfoESaIS5_EE17_M_realloc_insertIJS5_EEEvN9__gnu_cxx17__normal_iteratorIPS5_S7_EEDpOT_
FN:445,524,_ZNSt6vectorIPN7testing8internal30ParameterizedTestSuiteInfoBaseESaIS3_EE17_M_realloc_insertIJS3_EEEvN9__gnu_cxx17__normal_iteratorIPS3_S5_EEDpOT_
FN:445,524,_ZNSt6vectorISt10shared_ptrIN7testing8internal26ParameterizedTestSuiteInfoI21ErrorHandlingHelpTestE8TestInfoEESaIS7_EE17_M_realloc_insertIJS7_EEEvN9__gnu_cxx17__normal_iteratorIPS7_S9_EEDpOT_
FN:445,524,_ZNSt6vectorISt10shared_ptrIN7testing8internal26ParameterizedTestSuiteInfoI26ErrorHandlingTestArgumentsE8TestInfoEESaIS7_EE17_M_realloc_insertIJS7_EEEvN9__gnu_cxx17__normal_iteratorIPS7_S9_EEDpOT_
FNDA:2,_ZNSt6vectorIN7testing8internal26ParameterizedTestSuiteInfoI21ErrorHandlingHelpTestE17InstantiationInfoESaIS5_EE12emplace_backIJS5_EEERS5_DpOT_
FNDA:2,_ZNSt6vectorIN7testing8internal26ParameterizedTestSuiteInfoI26ErrorHandlingTestArgumentsE17InstantiationInfoESaIS5_EE12emplace_backIJS5_EEERS5_DpOT_
FNDA:4,_ZNSt6vectorIPN7testing8internal30ParameterizedTestSuiteInfoBaseESaIS3_EE12emplace_backIJS3_EEERS3_DpOT_
FNDA:2,_ZNSt6vectorISt10shared_ptrIN7testing8internal26ParameterizedTestSuiteInfoI21ErrorHandlingHelpTestE8TestInfoEESaIS7_EE12emplace_backIJS7_EEERS7_DpOT_
FNDA:2,_ZNSt6vectorISt10shared_ptrIN7testing8internal26ParameterizedTestSuiteInfoI26ErrorHandlingTestArgumentsE8TestInfoEESaIS7_EE12emplace_backIJS7_EEERS7_DpOT_
FNDA:2,_ZNSt6vectorIN7testing8internal26ParameterizedTestSuiteInfoI21ErrorHandlingHelpTestE17InstantiationInfoESaIS5_EE17_M_realloc_insertIJS5_EEEvN9__gnu_cxx17__normal_iteratorIPS5_S7_EEDpOT_
FNDA:2,_ZNSt6vectorIN7testing8internal26ParameterizedTestSuiteInfoI26ErrorHandlingTestArgumentsE17InstantiationInfoESaIS5_EE17_M_realloc_insertIJS5_EEEvN9__gnu_cxx17__normal_iteratorIPS5_S7_EEDpOT_
FNDA:4,_ZNSt6vectorIPN7testing8internal30ParameterizedTestSuiteInfoBaseESaIS3_EE17_M_realloc_insertIJS3_EEEvN9__gnu_cxx17__normal_iteratorIPS3_S5_EEDpOT_
FNDA:2,_ZNSt6vectorISt10shared_ptrIN7testing8internal26ParameterizedTestSuiteInfoI21ErrorHandlingHelpTestE8TestInfoEESaIS7_EE17_M_realloc_insertIJS7_EEEvN9__gnu_cxx17__normal_iteratorIPS7_S9_EEDpOT_
FNDA:2,_ZNSt6vectorISt10shared_ptrIN7testing8internal26ParameterizedTestSuiteInfoI26ErrorHandlingTestArgumentsE8TestInfoEESaIS7_EE17_M_realloc_insertIJS7_EEEvN9__gnu_cxx17__normal_iteratorIPS7_S9_EEDpOT_
FNF:10
FNH:10
DA:111,12
DA:114,12
DA:117,0
DA:119,0
DA:123,12
DA:125,12
DA:445,12
DA:455,12
DA:456,12
DA:457,12
DA:458,12
DA:459,12
DA:460,12
DA:468,12
DA:469,12
DA:475,12
DA:480,12
DA:481,12
DA:483,12
DA:485,12
DA:486,12
DA:519,12
DA:520,12
DA:521,12
DA:522,12
DA:523,12
DA:524,12
LF:27
LH:25
end_of_record
TN:
SF:/usr/include/c++/13/ext/aligned_buffer.h
FN:64,65,_ZN9__gnu_cxx16__aligned_membufINSt7__cxx1112basic_stringIcSt11char_traitsIcESaIcEEEE7_M_addrEv
FN:68,69,_ZNK9__gnu_cxx16__aligned_membufINSt7__cxx1112basic_stringIcSt11char_traitsIcESaIcEEEE7_M_addrEv
FN:72,73,_ZN9__gnu_cxx16__aligned_membufINSt7__cxx1112basic_stringIcSt11char_traitsIcESaIcEEEE6_M_ptrEv
FN:76,77,_ZNK9__gnu_cxx16__aligned_membufINSt7__cxx1112basic_stringIcSt11char_traitsIcESaIcEEEE6_M_ptrEv
FNDA:68,_ZN9__gnu_cxx16__aligned_membufINSt7__cxx1112basic_stringIcSt11char_traitsIcESaIcEEEE7_M_addrEv
FNDA:228,_ZNK9__gnu_cxx16__aligned_membufINSt7__cxx1112basic_stringIcSt11char_traitsIcESaIcEEEE7_M_addrEv
FNDA:68,_ZN9__gnu_cxx16__aligned_membufINSt7__cxx1112basic_stringIcSt11char_traitsIcESaIcEEEE6_M_ptrEv
FNDA:228,_ZNK9__gnu_cxx16__aligned_membufINSt7__cxx1112basic_stringIcSt11char_traitsIcESaIcEEEE6_M_ptrEv
FNF:4
FNH:4
DA:64,68
DA:65,68
DA:68,228
DA:69,228
DA:72,68
DA:73,68
DA:76,228
DA:77,228
LF:8
LH:8
end_of_record
TN:
SF:/usr/include/c++/13/ext/alloc_traits.h
FNF:0
FNH:0
DA:98,4
LF:1
LH:1
end_of_record
TN:
SF:/usr/include/c++/13/ext/atomicity.h
FNF:0
FNH:0
DA:52,8
DA:66,0
DA:71,0
DA:84,4
DA:85,4
DA:86,4
DA:92,4
DA:98,4
DA:99,4
DA:101,0
DA:108,4
DA:112,4
LF:12
LH:9
end_of_record
TN:
SF:/usr/include/c++/13/ext/string_conversions.h
FN:56,96,_ZN9__gnu_cxx6__stoaIffcJEEET0_PFT_PKT1_PPS3_DpT2_EPKcS5_PmS9_
FN:56,96,_ZN9__gnu_cxx6__stoaIlicJiEEET0_PFT_PKT1_PPS3_DpT2_EPKcS5_PmS9_
FN:65,65,_ZZN9__gnu_cxx6__stoaIffcJEEET0_PFT_PKT1_PPS3_DpT2_EPKcS5_PmS9_EN11_Save_errnoC2Ev
FN:65,65,_ZZN9__gnu_cxx6__stoaIlicJiEEET0_PFT_PKT1_PPS3_DpT2_EPKcS5_PmS9_EN11_Save_errnoC2Ev
FN:66,66,_ZZN9__gnu_cxx6__stoaIffcJEEET0_PFT_PKT1_PPS3_DpT2_EPKcS5_PmS9_EN11_Save_errnoD2Ev
FN:66,66,_ZZN9__gnu_cxx6__stoaIlicJiEEET0_PFT_PKT1_PPS3_DpT2_EPKcS5_PmS9_EN11_Save_errnoD2Ev
FN:72,72,_ZZN9__gnu_cxx6__stoaIffcJEEET0_PFT_PKT1_PPS3_DpT2_EPKcS5_PmS9_EN10_Range_chk6_S_chkEfSt17integral_constantIbLb0EE
FN:75,79,_ZZN9__gnu_cxx6__stoaIlicJiEEET0_PFT_PKT1_PPS3_DpT2_EPKcS5_PmS9_EN10_Range_chk6_S_chkElSt17integral_constantIbLb1EE
FNDA:6,_ZN9__gnu_cxx6__stoaIffcJEEET0_PFT_PKT1_PPS3_DpT2_EPKcS5_PmS9_
FNDA:15,_ZN9__gnu_cxx6__stoaIlicJiEEET0_PFT_PKT1_PPS3_DpT2_EPKcS5_PmS9_
FNDA:6,_ZZN9__gnu_cxx6__stoaIffcJEEET0_PFT_PKT1_PPS3_DpT2_EPKcS5_PmS9_EN11_Save_errnoC2Ev
FNDA:15,_ZZN9__gnu_cxx6__stoaIlicJiEEET0_PFT_PKT1_PPS3_DpT2_EPKcS5_PmS9_EN11_Save_errnoC2Ev
FNDA:6,_ZZN9__gnu_cxx6__stoaIffcJEEET0_PFT_PKT1_PPS3_DpT2_EPKcS5_PmS9_EN11_Save_errnoD2Ev
FNDA:15,_ZZN9__gnu_cxx6__stoaIlicJiEEET0_PFT_PKT1_PPS3_DpT2_EPKcS5_PmS9_EN11_Save_errnoD2Ev
FNDA:3,_ZZN9__gnu_cxx6__stoaIffcJEEET0_PFT_PKT1_PPS3_DpT2_EPKcS5_PmS9_EN10_Range_chk6_S_chkEfSt17integral_constantIbLb0EE
FNDA:13,_ZZN9__gnu_cxx6__stoaIlicJiEEET0_PFT_PKT1_PPS3_DpT2_EPKcS5_PmS9_EN10_Range_chk6_S_chkElSt17integral_constantIbLb1EE
FNF:8
FNH:8
DA:56,21
DA:65,21
DA:66,21
DA:68,21
DA:72,3
DA:75,13
DA:78,13
DA:82,21
DA:84,21
DA:85,5
DA:86,32
DA:87,16
DA:88,0
DA:90,16
DA:92,16
DA:93,0
DA:95,16
DA:96,21
LF:18
LH:16
end_of_record
TN:
SF:/usr/include/c++/13/initializer_list
FN:69,69,_ZNKSt16initializer_listI13ArgumentsCaseE4sizeEv
FN:69,69,_ZNKSt16initializer_listI9ErrorCaseE4sizeEv
FN:73,73,_ZNKSt16initializer_listI13ArgumentsCaseE5beginEv
FN:73,73,_ZNKSt16initializer_listI9ErrorCaseE5beginEv
FN:77,77,_ZNKSt16initializer_listI13ArgumentsCaseE3endEv
FN:77,77,_ZNKSt16initializer_listI9ErrorCaseE3endEv
FNDA:2,_ZNKSt16initializer_listI13ArgumentsCaseE4sizeEv
FNDA:2,_ZNKSt16initializer_listI9ErrorCaseE4sizeEv
FNDA:4,_ZNKSt16initializer_listI13ArgumentsCaseE5beginEv
FNDA:4,_ZNKSt16initializer_listI9ErrorCaseE5beginEv
FNDA:2,_ZNKSt16initializer_listI13ArgumentsCaseE3endEv
FNDA:2,_ZNKSt16initializer_listI9ErrorCaseE3endEv
FNF:6
FNH:6
DA:69,4
DA:73,8
DA:77,4
LF:3
LH:3
end_of_record
TN:
SF:/usr/include/c++/13/new
FN:174,175,_ZnwmPv
FN:180,180,_ZdlPvS_
FNDA:80,_ZnwmPv
FNDA:0,_ZdlPvS_
FNF:2
FNH:1
DA:174,80
DA:175,80
DA:180,0
LF:3
LH:2
end_of_record
TN:
SF:/usr/include/c++/13/tuple
FN:125,125,_ZNSt10_Head_baseILm1ESt14default_deleteIK13ArgumentsCaseELb1EE7_M_headERS4_
FN:125,125,_ZNSt10_Head_baseILm1ESt14default_deleteIK9ErrorCaseELb1EE7_M_headERS4_
FN:125,125,_ZNSt10_Head_baseILm1ESt14default_deleteIN7testing8internal19TestMetaFactoryBaseI13ArgumentsCaseEEELb1EE7_M_headERS7_
FN:125,125,_ZNSt10_Head_baseILm1ESt14default_deleteIN7testing8internal19TestMetaFactoryBaseI9ErrorCaseEEELb1EE7_M_headERS7_
FN:125,125,_ZNSt10_Head_baseILm1ESt14default_deleteIN7testing8internal22ParamIteratorInterfaceI13ArgumentsCaseEEELb1EE7_M_headERS7_
FN:125,125,_ZNSt10_Head_baseILm1ESt14default_deleteIN7testing8internal22ParamIteratorInterfaceI9ErrorCaseEEELb1EE7_M_headERS7_
FN:125,125,_ZNSt10_Head_baseILm1ESt14default_deleteINSt7__cxx1112basic_stringIcSt11char_traitsIcESaIcEEEELb1EE7_M_headERS8_
FN:125,125,_ZNSt10_Head_baseILm1ESt14default_deleteINSt7__cxx1118basic_stringstreamIcSt11char_traitsIcESaIcEEEELb1EE7_M_headERS8_
FN:1317,1319,_ZNSt5tupleIJPK13ArgumentsCaseSt14default_deleteIS1_EEEC2ILb1ELb1EEEv
FN:1317,1319,_ZNSt5tupleIJPK9ErrorCaseSt14default_deleteIS1_EEEC2ILb1ELb1EEEv
FN:1317,1319,_ZNSt5tupleIJPN7testing8internal19TestMetaFactoryBaseI13ArgumentsCaseEESt14default_deleteIS4_EEEC2ILb1ELb1EEEv
FN:1317,1319,_ZNSt5tupleIJPN7testing8internal19TestMetaFactoryBaseI9ErrorCaseEESt14default_deleteIS4_EEEC2ILb1ELb1EEEv
FN:1317,1319,_ZNSt5tupleIJPN7testing8internal22ParamIteratorInterfaceI13ArgumentsCaseEESt14default_deleteIS4_EEEC2ILb1ELb1EEEv
FN:1317,1319,_ZNSt5tupleIJPN7testing8internal22ParamIteratorInterfaceI9ErrorCaseEESt14default_deleteIS4_EEEC2ILb1ELb1EEEv
FN:1787,1788,_ZSt12__get_helperILm0EPK13ArgumentsCaseJSt14default_deleteIS1_EEERT0_RSt11_Tuple_implIXT_EJS5_DpT1_EE
FN:1787,1788,_ZSt12__get_helperILm0EPK9ErrorCaseJSt14default_deleteIS1_EEERT0_RSt11_Tuple_implIXT_EJS5_DpT1_EE
FN:1787,1788,_ZSt12__get_helperILm0EPN7testing8internal19TestMetaFactoryBaseI13ArgumentsCaseEEJSt14default_deleteIS4_EEERT0_RSt11_Tuple_implIXT_EJS8_DpT1_EE
FN:1787,1788,_ZSt12__get_helperILm0EPN7testing8internal19TestMetaFactoryBaseI9ErrorCaseEEJSt14default_deleteIS4_EEERT0_RSt11_Tuple_implIXT_EJS8_DpT1_EE
FN:1787,1788,_ZSt12__get_helperILm0EPN7testing8internal22ParamIteratorInterfaceI13ArgumentsCaseEEJSt14default_deleteIS4_EEERT0_RSt11_Tuple_implIXT_EJS8_DpT1_EE
FN:1787,1788,_ZSt12__get_helperILm0EPN7testing8internal22ParamIteratorInterfaceI9ErrorCaseEEJSt14default_deleteIS4_EEERT0_RSt11_Tuple_implIXT_EJS8_DpT1_EE
FN:1787,1788,_ZSt12__get_helperILm0EPNSt7__cxx1112basic_stringIcSt11char_traitsIcESaIcEEEJSt14default_deleteIS5_EEERT0_RSt11_Tuple_implIXT_EJS9_DpT1_EE
FN:1787,1788,_ZSt12__get_helperILm0EPNSt7__cxx1118basic_stringstreamIcSt11char_traitsIcESaIcEEEJSt14default_deleteIS5_EEERT0_RSt11_Tuple_implIXT_EJS9_DpT1_EE
FN:1787,1788,_ZSt12__get_helperILm1ESt14default_deleteIK13ArgumentsCaseEJEERT0_RSt11_Tuple_implIXT_EJS4_DpT1_EE
FN:1787,1788,_ZSt12__get_helperILm1ESt14default_deleteIK9ErrorCaseEJEERT0_RSt11_Tuple_implIXT_EJS4_DpT1_EE
FN:1787,1788,_ZSt12__get_helperILm1ESt14default_deleteIN7testing8internal19TestMetaFactoryBaseI13ArgumentsCaseEEEJEERT0_RSt11_Tuple_implIXT_EJS7_DpT1_EE
FN:1787,1788,_ZSt12__get_helperILm1ESt14default_deleteIN7testing8internal19TestMetaFactoryBaseI9ErrorCaseEEEJEERT0_RSt11_Tuple_implIXT_EJS7_DpT1_EE
FN:1787,1788,_ZSt12__get_helperILm1ESt14default_deleteIN7testing8internal22ParamIteratorInterfaceI13ArgumentsCaseEEEJEERT0_RSt11_Tuple_implIXT_EJS7_DpT1_EE
FN:1787,1788,_ZSt12__get_helperILm1ESt14default_deleteIN7testing8internal22ParamIteratorInterfaceI9ErrorCaseEEEJEERT0_RSt11_Tuple_implIXT_EJS7_DpT1_EE
FN:1787,1788,_ZSt12__get_helperILm1ESt14default_deleteINSt7__cxx1112basic_stringIcSt11char_traitsIcESaIcEEEEJEERT0_RSt11_Tuple_implIXT_EJS8_DpT1_EE
FN:1787,1788,_ZSt12__get_helperILm1ESt14default_deleteINSt7__cxx1118basic_stringstreamIcSt11char_traitsIcESaIcEEEEJEERT0_RSt11_Tuple_implIXT_EJS8_DpT1_EE
FN:1792,1793,_ZSt12__get_helperILm0EPK13ArgumentsCaseJSt14default_deleteIS1_EEERKT0_RKSt11_Tuple_implIXT_EJS5_DpT1_EE
FN:1792,1793,_ZSt12__get_helperILm0EPK9ErrorCaseJSt14default_deleteIS1_EEERKT0_RKSt11_Tuple_implIXT_EJS5_DpT1_EE
FN:1792,1793,_ZSt12__get_helperILm0EPN7testing8internal19TestMetaFactoryBaseI13ArgumentsCaseEEJSt14default_deleteIS4_EEERKT0_RKSt11_Tuple_implIXT_EJS8_DpT1_EE
FN:1792,1793,_ZSt12__get_helperILm0EPN7testing8internal19TestMetaFactoryBaseI9ErrorCaseEEJSt14default_deleteIS4_EEERKT0_RKSt11_Tuple_implIXT_EJS8_DpT1_EE
FN:1792,1793,_ZSt12__get_helperILm0EPN7testing8internal22ParamIteratorInterfaceI13ArgumentsCaseEEJSt14default_deleteIS4_EEERKT0_RKSt11_Tuple_implIXT_EJS8_DpT1_EE
FN:1792,1793,_ZSt12__get_helperILm0EPN7testing8internal22ParamIteratorInterfaceI9ErrorCaseEEJSt14default_deleteIS4_EEERKT0_RKSt11_Tuple_implIXT_EJS8_DpT1_EE
FN:1792,1793,_ZSt12__get_helperILm0EPNSt7__cxx1112basic_stringIcSt11char_traitsIcESaIcEEEJSt14default_deleteIS5_EEERKT0_RKSt11_Tuple_implIXT_EJS9_DpT1_EE
FN:1792,1793,_ZSt12__get_helperILm0EPNSt7__cxx1118basic_stringstreamIcSt11char_traitsIcESaIcEEEJSt14default_deleteIS5_EEERKT0_RKSt11_Tuple_implIXT_EJS9_DpT1_EE
FN:1803,1804,_ZSt3getILm0EJPK13ArgumentsCaseSt14default_deleteIS1_EEERNSt13tuple_elementIXT_ESt5tupleIJDpT0_EEE4typeERS9_
FN:1803,1804,_ZSt3getILm0EJPK9ErrorCaseSt14default_deleteIS1_EEERNSt13tuple_elementIXT_ESt5tupleIJDpT0_EEE4typeERS9_
FN:1803,1804,_ZSt3getILm0EJPN7testing8internal19TestMetaFactoryBaseI13ArgumentsCaseEESt14default_deleteIS4_EEERNSt13tuple_elementIXT_ESt5tupleIJDpT0_EEE4typeERSC_
FN:1803,1804,_ZSt3getILm0EJPN7testing8internal19TestMetaFactoryBaseI9ErrorCaseEESt14default_deleteIS4_EEERNSt13tuple_elementIXT_ESt5tupleIJDpT0_EEE4typeERSC_
FN:1803,1804,_ZSt3getILm0EJPN7testing8internal22ParamIteratorInterfaceI13ArgumentsCaseEESt14default_deleteIS4_EEERNSt13tuple_elementIXT_ESt5tupleIJDpT0_EEE4typeERSC_
FN:1803,1804,_ZSt3getILm0EJPN7testing8internal22ParamIteratorInterfaceI9ErrorCaseEESt14default_deleteIS4_EEERNSt13tuple_elementIXT_ESt5tupleIJDpT0_EEE4typeERSC_
FN:1803,1804,_ZSt3getILm0EJPNSt7__cxx1112basic_stringIcSt11char_traitsIcESaIcEEESt14default_deleteIS5_EEERNSt13tuple_elementIXT_ESt5tupleIJDpT0_EEE4typeERSD_
FN:1803,1804,_ZSt3getILm0EJPNSt7__cxx1118basic_stringstreamIcSt11char_traitsIcESaIcEEESt14default_deleteIS5_EEERNSt13tuple_elementIXT_ESt5tupleIJDpT0_EEE4typeERSD_
FN:1803,1804,_ZSt3getILm1EJPK13ArgumentsCaseSt14default_deleteIS1_EEERNSt13tuple_elementIXT_ESt5tupleIJDpT0_EEE4typeERS9_
FN:1803,1804,_ZSt3getILm1EJPK9ErrorCaseSt14default_deleteIS1_EEERNSt13tuple_elementIXT_ESt5tupleIJDpT0_EEE4typeERS9_
FN:1803,1804,_ZSt3getILm1EJPN7testing8internal19TestMetaFactoryBaseI13ArgumentsCaseEESt14default_deleteIS4_EEERNSt13tuple_elementIXT_ESt5tupleIJDpT0_EEE4typeERSC_
FN:1803,1804,_ZSt3getILm1EJPN7testing8internal19TestMetaFactoryBaseI9ErrorCaseEESt14default_deleteIS4_EEERNSt13tuple_elementIXT_ESt5tupleIJDpT0_EEE4typeERSC_
FN:1803,1804,_ZSt3getILm1EJPN7testing8internal22ParamIteratorInterfaceI13ArgumentsCaseEESt14default_deleteIS4_EEERNSt13tuple_elementIXT_ESt5tupleIJDpT0_EEE4typeERSC_
FN:1803,1804,_ZSt3getILm1EJPN7testing8internal22ParamIteratorInterfaceI9ErrorCaseEESt14default_deleteIS4_EEERNSt13tuple_elementIXT_ESt5tupleIJDpT0_EEE4typeERSC_
FN:1803,1804,_ZSt3getILm1EJPNSt7__cxx1112basic_stringIcSt11char_traitsIcESaIcEEESt14default_deleteIS5_EEERNSt13tuple_elementIXT_ESt5tupleIJDpT0_EEE4typeERSD_
FN:1803,1804,_ZSt3getILm1EJPNSt7__cxx1118basic_stringstreamIcSt11char_traitsIcESaIcEEESt14default_deleteIS5_EEERNSt13tuple_elementIXT_ESt5tupleIJDpT0_EEE4typeERSD_
FN:1809,1810,_ZSt3getILm0EJPK13ArgumentsCaseSt14default_deleteIS1_EEERKNSt13tuple_elementIXT_ESt5tupleIJDpT0_EEE4typeERKS9_
FN:1809,1810,_ZSt3getILm0EJPK9ErrorCaseSt14default_deleteIS1_EEERKNSt13tuple_elementIXT_ESt5tupleIJDpT0_EEE4typeERKS9_
FN:1809,1810,_ZSt3getILm0EJPN7testing8internal19TestMetaFactoryBaseI13ArgumentsCaseEESt14default_deleteIS4_EEERKNSt13tuple_elementIXT_ESt5tupleIJDpT0_EEE4typeERKSC_
FN:1809,1810,_ZSt3getILm0EJPN7testing8internal19TestMetaFactoryBaseI9ErrorCaseEESt14default_deleteIS4_EEERKNSt13tuple_elementIXT_ESt5tupleIJDpT0_EEE4typeERKSC_
FN:1809,1810,_ZSt3getILm0EJPN7testing8internal22ParamIteratorInterfaceI13ArgumentsCaseEESt14default_deleteIS4_EEERKNSt13tuple_elementIXT_ESt5tupleIJDpT0_EEE4typeERKSC_
FN:1809,1810,_ZSt3getILm0EJPN7testing8internal22ParamIteratorInterfaceI9ErrorCaseEESt14default_deleteIS4_EEERKNSt13tuple_elementIXT_ESt5tupleIJDpT0_EEE4typeERKSC_
FN:1809,1810,_ZSt3getILm0EJPNSt7__cxx1112basic_stringIcSt11char_traitsIcESaIcEEESt14default_deleteIS5_EEERKNSt13tuple_elementIXT_ESt5tupleIJDpT0_EEE4typeERKSD_
FN:1809,1810,_ZSt3getILm0EJPNSt7__cxx1118basic_stringstreamIcSt11char_traitsIcESaIcEEESt14default_deleteIS5_EEERKNSt13tuple_elementIXT_ESt5tupleIJDpT0_EEE4typeERKSD_
FN:190,191,_ZNSt10_Head_baseILm0EPK13ArgumentsCaseLb0EEC2Ev
FN:190,191,_ZNSt10_Head_baseILm0EPK9ErrorCaseLb0EEC2Ev
FN:190,191,_ZNSt10_Head_baseILm0EPN7testing8internal19TestMetaFactoryBaseI13ArgumentsCaseEELb0EEC2Ev
FN:190,191,_ZNSt10_Head_baseILm0EPN7testing8internal19TestMetaFactoryBaseI9ErrorCaseEELb0EEC2Ev
FN:190,191,_ZNSt10_Head_baseILm0EPN7testing8internal22ParamIteratorInterfaceI13ArgumentsCaseEELb0EEC2Ev
FN:190,191,_ZNSt10_Head_baseILm0EPN7testing8internal22ParamIteratorInterfaceI9ErrorCaseEELb0EEC2Ev
FN:200,201,_ZNSt10_Head_baseILm0EN7testing8internal10ValueArrayIJ13ArgumentsCaseS3_S3_S3_S3_S3_S3_S3_S3_S3_EEELb0EEC2IS4_EEOT_
FN:200,201,_ZNSt10_Head_baseILm0EN7testing8internal10ValueArrayIJ9ErrorCaseS3_S3_S3_S3_S3_S3_EEELb0EEC2IS4_EEOT_
FN:2001,2006,_ZSt10make_tupleIJN7testing8internal10ValueArrayIJ13ArgumentsCaseS3_S3_S3_S3_S3_S3_S3_S3_S3_EEEEESt5tupleIJDpNSt25__strip_reference_wrapperINSt5decayIT_E4typeEE6__typeEEEDpOS8_
FN:2001,2006,_ZSt10make_tupleIJN7testing8internal10ValueArrayIJ9ErrorCaseS3_S3_S3_S3_S3_S3_EEEEESt5tupleIJDpNSt25__strip_reference_wrapperINSt5decayIT_E4typeEE6__typeEEEDpOS8_
FN:234,234,_ZNSt10_Head_baseILm0EPK13ArgumentsCaseLb0EE7_M_headERS3_
FN:234,234,_ZNSt10_Head_baseILm0EPK9ErrorCaseLb0EE7_M_headERS3_
FN:234,234,_ZNSt10_Head_baseILm0EPN7testing8internal19TestMetaFactoryBaseI13ArgumentsCaseEELb0EE7_M_headERS6_
FN:234,234,_ZNSt10_Head_baseILm0EPN7testing8internal19TestMetaFactoryBaseI9ErrorCaseEELb0EE7_M_headERS6_
FN:234,234,_ZNSt10_Head_baseILm0EPN7testing8internal22ParamIteratorInterfaceI13ArgumentsCaseEELb0EE7_M_headERS6_
FN:234,234,_ZNSt10_Head_baseILm0EPN7testing8internal22ParamIteratorInterfaceI9ErrorCaseEELb0EE7_M_headERS6_
FN:234,234,_ZNSt10_Head_baseILm0EPNSt7__cxx1112basic_stringIcSt11char_traitsIcESaIcEEELb0EE7_M_headERS7_
FN:234,234,_ZNSt10_Head_baseILm0EPNSt7__cxx1118basic_stringstreamIcSt11char_traitsIcESaIcEEELb0EE7_M_headERS7_
FN:237,237,_ZNSt10_Head_baseILm0EPK13ArgumentsCaseLb0EE7_M_headERKS3_
FN:237,237,_ZNSt10_Head_baseILm0EPK9ErrorCaseLb0EE7_M_headERKS3_
FN:237,237,_ZNSt10_Head_baseILm0EPN7testing8internal19TestMetaFactoryBaseI13ArgumentsCaseEELb0EE7_M_headERKS6_
FN:237,237,_ZNSt10_Head_baseILm0EPN7testing8internal19TestMetaFactoryBaseI9ErrorCaseEELb0EE7_M_headERKS6_
FN:237,237,_ZNSt10_Head_baseILm0EPN7testing8internal22ParamIteratorInterfaceI13ArgumentsCaseEELb0EE7_M_headERKS6_
FN:237,237,_ZNSt10_Head_baseILm0EPN7testing8internal22ParamIteratorInterfaceI9ErrorCaseEELb0EE7_M_headERKS6_
FN:237,237,_ZNSt10_Head_baseILm0EPNSt7__cxx1112basic_stringIcSt11char_traitsIcESaIcEEELb0EE7_M_headERKS7_
FN:237,237,_ZNSt10_Head_baseILm0EPNSt7__cxx1118basic_stringstreamIcSt11char_traitsIcESaIcEEELb0EE7_M_headERKS7_
FN:269,269,_ZNSt11_Tuple_implILm0EJPK13ArgumentsCaseSt14default_deleteIS1_EEE7_M_headERS5_
FN:269,269,_ZNSt11_Tuple_implILm0EJPK9ErrorCaseSt14default_deleteIS1_EEE7_M_headERS5_
FN:269,269,_ZNSt11_Tuple_implILm0EJPN7testing8internal19TestMetaFactoryBaseI13ArgumentsCaseEESt14default_deleteIS4_EEE7_M_headERS8_
FN:269,269,_ZNSt11_Tuple_implILm0EJPN7testing8internal19TestMetaFactoryBaseI9ErrorCaseEESt14default_deleteIS4_EEE7_M_headERS8_
FN:269,269,_ZNSt11_Tuple_implILm0EJPN7testing8internal22ParamIteratorInterfaceI13ArgumentsCaseEESt14default_deleteIS4_EEE7_M_headERS8_
FN:269,269,_ZNSt11_Tuple_implILm0EJPN7testing8internal22ParamIteratorInterfaceI9ErrorCaseEESt14default_deleteIS4_EEE7_M_headERS8_
FN:269,269,_ZNSt11_Tuple_implILm0EJPNSt7__cxx1112basic_stringIcSt11char_traitsIcESaIcEEESt14default_deleteIS5_EEE7_M_headERS9_
FN:269,269,_ZNSt11_Tuple_implILm0EJPNSt7__cxx1118basic_stringstreamIcSt11char_traitsIcESaIcEEESt14default_deleteIS5_EEE7_M_headERS9_
FN:272,272,_ZNSt11_Tuple_implILm0EJPK13ArgumentsCaseSt14default_deleteIS1_EEE7_M_headERKS5_
FN:272,272,_ZNSt11_Tuple_implILm0EJPK9ErrorCaseSt14default_deleteIS1_EEE7_M_headERKS5_
FN:272,272,_ZNSt11_Tuple_implILm0EJPN7testing8internal19TestMetaFactoryBaseI13ArgumentsCaseEESt14default_deleteIS4_EEE7_M_headERKS8_
FN:272,272,_ZNSt11_Tuple_implILm0EJPN7testing8internal19TestMetaFactoryBaseI9ErrorCaseEESt14default_deleteIS4_EEE7_M_headERKS8_
FN:272,272,_ZNSt11_Tuple_implILm0EJPN7testing8internal22ParamIteratorInterfaceI13ArgumentsCaseEESt14default_deleteIS4_EEE7_M_headERKS8_
FN:272,272,_ZNSt11_Tuple_implILm0EJPN7testing8internal22ParamIteratorInterfaceI9ErrorCaseEESt14default_deleteIS4_EEE7_M_headERKS8_
FN:272,272,_ZNSt11_Tuple_implILm0EJPNSt7__cxx1112basic_stringIcSt11char_traitsIcESaIcEEESt14default_deleteIS5_EEE7_M_headERKS9_
FN:272,272,_ZNSt11_Tuple_implILm0EJPNSt7__cxx1118basic_stringstreamIcSt11char_traitsIcESaIcEEESt14default_deleteIS5_EEE7_M_headERKS9_
FN:280,281,_ZNSt11_Tuple_implILm0EJPK13ArgumentsCaseSt14default_deleteIS1_EEEC2Ev
FN:280,281,_ZNSt11_Tuple_implILm0EJPK9ErrorCaseSt14default_deleteIS1_EEEC2Ev
FN:280,281,_ZNSt11_Tuple_implILm0EJPN7testing8internal19TestMetaFactoryBaseI13ArgumentsCaseEESt14default_deleteIS4_EEEC2Ev
FN:280,281,_ZNSt11_Tuple_implILm0EJPN7testing8internal19TestMetaFactoryBaseI9ErrorCaseEESt14default_deleteIS4_EEEC2Ev
FN:280,281,_ZNSt11_Tuple_implILm0EJPN7testing8internal22ParamIteratorInterfaceI13ArgumentsCaseEESt14default_deleteIS4_EEEC2Ev
FN:280,281,_ZNSt11_Tuple_implILm0EJPN7testing8internal22ParamIteratorInterfaceI9ErrorCaseEESt14default_deleteIS4_EEEC2Ev
FN:497,497,_ZNSt11_Tuple_implILm1EJSt14default_deleteIK13ArgumentsCaseEEE7_M_headERS4_
FN:497,497,_ZNSt11_Tuple_implILm1EJSt14default_deleteIK9ErrorCaseEEE7_M_headERS4_
FN:497,497,_ZNSt11_Tuple_implILm1EJSt14default_deleteIN7testing8internal19TestMetaFactoryBaseI13ArgumentsCaseEEEEE7_M_headERS7_
FN:497,497,_ZNSt11_Tuple_implILm1EJSt14default_deleteIN7testing8internal19TestMetaFactoryBaseI9ErrorCaseEEEEE7_M_headERS7_
FN:497,497,_ZNSt11_Tuple_implILm1EJSt14default_deleteIN7testing8internal22ParamIteratorInterfaceI13ArgumentsCaseEEEEE7_M_headERS7_
FN:497,497,_ZNSt11_Tuple_implILm1EJSt14default_deleteIN7testing8internal22ParamIteratorInterfaceI9ErrorCaseEEEEE7_M_headERS7_
FN:497,497,_ZNSt11_Tuple_implILm1EJSt14default_deleteINSt7__cxx1112basic_stringIcSt11char_traitsIcESaIcEEEEEE7_M_headERS8_
FN:497,497,_ZNSt11_Tuple_implILm1EJSt14default_deleteINSt7__cxx1118basic_stringstreamIcSt11char_traitsIcESaIcEEEEEE7_M_headERS8_
FN:503,504,_ZNSt11_Tuple_implILm1EJSt14default_deleteIK13ArgumentsCaseEEEC2Ev
FN:503,504,_ZNSt11_Tuple_implILm1EJSt14default_deleteIK9ErrorCaseEEEC2Ev
FN:503,504,_ZNSt11_Tuple_implILm1EJSt14default_deleteIN7testing8internal19TestMetaFactoryBaseI13ArgumentsCaseEEEEEC2Ev
FN:503,504,_ZNSt11_Tuple_implILm1EJSt14default_deleteIN7testing8internal19TestMetaFactoryBaseI9ErrorCaseEEEEEC2Ev
FN:503,504,_ZNSt11_Tuple_implILm1EJSt14default_deleteIN7testing8internal22ParamIteratorInterfaceI13ArgumentsCaseEEEEEC2Ev
FN:503,504,_ZNSt11_Tuple_implILm1EJSt14default_deleteIN7testing8internal22ParamIteratorInterfaceI9ErrorCaseEEEEEC2Ev
FN:513,515,_ZNSt11_Tuple_implILm0EJN7testing8internal10ValueArrayIJ13ArgumentsCaseS3_S3_S3_S3_S3_S3_S3_S3_S3_EEEEEC2IS4_EEOT_
FN:513,515,_ZNSt11_Tuple_implILm0EJN7testing8internal10ValueArrayIJ9ErrorCaseS3_S3_S3_S3_S3_S3_EEEEEC2IS4_EEOT_
FN:81,82,_ZNSt10_Head_baseILm1ESt14default_deleteIK13ArgumentsCaseELb1EEC2Ev
FN:81,82,_ZNSt10_Head_baseILm1ESt14default_deleteIK9ErrorCaseELb1EEC2Ev
FN:81,82,_ZNSt10_Head_baseILm1ESt14default_deleteIN7testing8internal19TestMetaFactoryBaseI13ArgumentsCaseEEELb1EEC2Ev
FN:81,82,_ZNSt10_Head_baseILm1ESt14default_deleteIN7testing8internal19TestMetaFactoryBaseI9ErrorCaseEEELb1EEC2Ev
FN:81,82,_ZNSt10_Head_baseILm1ESt14default_deleteIN7testing8internal22ParamIteratorInterfaceI13ArgumentsCaseEEELb1EEC2Ev
FN:81,82,_ZNSt10_Head_baseILm1ESt14default_deleteIN7testing8internal22ParamIteratorInterfaceI9ErrorCaseEEELb1EEC2Ev
FN:889,891,_ZNSt5tupleIJN7testing8internal10ValueArrayIJ13ArgumentsCaseS3_S3_S3_S3_S3_S3_S3_S3_S3_EEEEEC2IJS4_ELb1ELb1EEEDpOT_
FN:889,891,_ZNSt5tupleIJN7testing8internal10ValueArrayIJ9ErrorCaseS3_S3_S3_S3_S3_S3_EEEEEC2IJS4_ELb1ELb1EEEDpOT_
FNDA:20,_ZNSt10_Head_baseILm1ESt14default_deleteIK13ArgumentsCaseELb1EE7_M_headERS4_
FNDA:14,_ZNSt10_Head_baseILm1ESt14default_deleteIK9ErrorCaseELb1EE7_M_headERS4_
FNDA:2,_ZNSt10_Head_baseILm1ESt14default_deleteIN7testing8internal19TestMetaFactoryBaseI13ArgumentsCaseEEELb1EE7_M_headERS7_
FNDA:2,_ZNSt10_Head_baseILm1ESt14default_deleteIN7testing8internal19TestMetaFactoryBaseI9ErrorCaseEEELb1EE7_M_headERS7_
FNDA:24,_ZNSt10_Head_baseILm1ESt14default_deleteIN7testing8internal22ParamIteratorInterfaceI13ArgumentsCaseEEELb1EE7_M_headERS7_
FNDA:18,_ZNSt10_Head_baseILm1ESt14default_deleteIN7testing8internal22ParamIteratorInterfaceI9ErrorCaseEEELb1EE7_M_headERS7_
FNDA:0,_ZNSt10_Head_baseILm1ESt14default_deleteINSt7__cxx1112basic_stringIcSt11char_traitsIcESaIcEEEELb1EE7_M_headERS8_
FNDA:68,_ZNSt10_Head_baseILm1ESt14default_deleteINSt7__cxx1118basic_stringstreamIcSt11char_traitsIcESaIcEEEELb1EE7_M_headERS8_
FNDA:24,_ZNSt5tupleIJPK13ArgumentsCaseSt14default_deleteIS1_EEEC2ILb1ELb1EEEv
FNDA:18,_ZNSt5tupleIJPK9ErrorCaseSt14default_deleteIS1_EEEC2ILb1ELb1EEEv
FNDA:2,_ZNSt5tupleIJPN7testing8internal19TestMetaFactoryBaseI13ArgumentsCaseEESt14default_deleteIS4_EEEC2ILb1ELb1EEEv
FNDA:2,_ZNSt5tupleIJPN7testing8internal19TestMetaFactoryBaseI9ErrorCaseEESt14default_deleteIS4_EEEC2ILb1ELb1EEEv
FNDA:24,_ZNSt5tupleIJPN7testing8internal22ParamIteratorInterfaceI13ArgumentsCaseEESt14default_deleteIS4_EEEC2ILb1ELb1EEEv
FNDA:18,_ZNSt5tupleIJPN7testing8internal22ParamIteratorInterfaceI9ErrorCaseEESt14default_deleteIS4_EEEC2ILb1ELb1EEEv
FNDA:104,_ZSt12__get_helperILm0EPK13ArgumentsCaseJSt14default_deleteIS1_EEERT0_RSt11_Tuple_implIXT_EJS5_DpT1_EE
FNDA:74,_ZSt12__get_helperILm0EPK9ErrorCaseJSt14default_deleteIS1_EEERT0_RSt11_Tuple_implIXT_EJS5_DpT1_EE
FNDA:4,_ZSt12__get_helperILm0EPN7testing8internal19TestMetaFactoryBaseI13ArgumentsCaseEEJSt14default_deleteIS4_EEERT0_RSt11_Tuple_implIXT_EJS8_DpT1_EE
FNDA:4,_ZSt12__get_helperILm0EPN7testing8internal19TestMetaFactoryBaseI9ErrorCaseEEJSt14default_deleteIS4_EEERT0_RSt11_Tuple_implIXT_EJS8_DpT1_EE
FNDA:48,_ZSt12__get_helperILm0EPN7testing8internal22ParamIteratorInterfaceI13ArgumentsCaseEEJSt14default_deleteIS4_EEERT0_RSt11_Tuple_implIXT_EJS8_DpT1_EE
FNDA:36,_ZSt12__get_helperILm0EPN7testing8internal22ParamIteratorInterfaceI9ErrorCaseEEJSt14default_deleteIS4_EEERT0_RSt11_Tuple_implIXT_EJS8_DpT1_EE
FNDA:32,_ZSt12__get_helperILm0EPNSt7__cxx1112basic_stringIcSt11char_traitsIcESaIcEEEJSt14default_deleteIS5_EEERT0_RSt11_Tuple_implIXT_EJS9_DpT1_EE
FNDA:68,_ZSt12__get_helperILm0EPNSt7__cxx1118basic_stringstreamIcSt11char_traitsIcESaIcEEEJSt14default_deleteIS5_EEERT0_RSt11_Tuple_implIXT_EJS9_DpT1_EE
FNDA:20,_ZSt12__get_helperILm1ESt14default_deleteIK13ArgumentsCaseEJEERT0_RSt11_Tuple_implIXT_EJS4_DpT1_EE
FNDA:14,_ZSt12__get_helperILm1ESt14default_deleteIK9ErrorCaseEJEERT0_RSt11_Tuple_implIXT_EJS4_DpT1_EE
FNDA:2,_ZSt12__get_helperILm1ESt14default_deleteIN7testing8internal19TestMetaFactoryBaseI13ArgumentsCaseEEEJEERT0_RSt11_Tuple_implIXT_EJS7_DpT1_EE
FNDA:2,_ZSt12__get_helperILm1ESt14default_deleteIN7testing8internal19TestMetaFactoryBaseI9ErrorCaseEEEJEERT0_RSt11_Tuple_implIXT_EJS7_DpT1_EE
FNDA:24,_ZSt12__get_helperILm1ESt14default_deleteIN7testing8internal22ParamIteratorInterfaceI13ArgumentsCaseEEEJEERT0_RSt11_Tuple_implIXT_EJS7_DpT1_EE
FNDA:18,_ZSt12__get_helperILm1ESt14default_deleteIN7testing8internal22ParamIteratorInterfaceI9ErrorCaseEEEJEERT0_RSt11_Tuple_implIXT_EJS7_DpT1_EE
FNDA:0,_ZSt12__get_helperILm1ESt14default_deleteINSt7__cxx1112basic_stringIcSt11char_traitsIcESaIcEEEEJEERT0_RSt11_Tuple_implIXT_EJS8_DpT1_EE
FNDA:68,_ZSt12__get_helperILm1ESt14default_deleteINSt7__cxx1118basic_stringstreamIcSt11char_traitsIcESaIcEEEEJEERT0_RSt11_Tuple_implIXT_EJS8_DpT1_EE
FNDA:120,_ZSt12__get_helperILm0EPK13ArgumentsCaseJSt14default_deleteIS1_EEERKT0_RKSt11_Tuple_implIXT_EJS5_DpT1_EE
FNDA:84,_ZSt12__get_helperILm0EPK9ErrorCaseJSt14default_deleteIS1_EEERKT0_RKSt11_Tuple_implIXT_EJS5_DpT1_EE
FNDA:20,_ZSt12__get_helperILm0EPN7testing8internal19TestMetaFactoryBaseI13ArgumentsCaseEEJSt14default_deleteIS4_EEERKT0_RKSt11_Tuple_implIXT_EJS8_DpT1_EE
FNDA:14,_ZSt12__get_helperILm0EPN7testing8internal19TestMetaFactoryBaseI9ErrorCaseEEJSt14default_deleteIS4_EEERKT0_RKSt11_Tuple_implIXT_EJS8_DpT1_EE
FNDA:168,_ZSt12__get_helperILm0EPN7testing8internal22ParamIteratorInterfaceI13ArgumentsCaseEEJSt14default_deleteIS4_EEERKT0_RKSt11_Tuple_implIXT_EJS8_DpT1_EE
FNDA:120,_ZSt12__get_helperILm0EPN7testing8internal22ParamIteratorInterfaceI9ErrorCaseEEJSt14default_deleteIS4_EEERKT0_RKSt11_Tuple_implIXT_EJS8_DpT1_EE
FNDA:0,_ZSt12__get_helperILm0EPNSt7__cxx1112basic_stringIcSt11char_traitsIcESaIcEEEJSt14default_deleteIS5_EEERKT0_RKSt11_Tuple_implIXT_EJS9_DpT1_EE
FNDA:136,_ZSt12__get_helperILm0EPNSt7__cxx1118basic_stringstreamIcSt11char_traitsIcESaIcEEEJSt14default_deleteIS5_EEERKT0_RKSt11_Tuple_implIXT_EJS9_DpT1_EE
FNDA:104,_ZSt3getILm0EJPK13ArgumentsCaseSt14default_deleteIS1_EEERNSt13tuple_elementIXT_ESt5tupleIJDpT0_EEE4typeERS9_
FNDA:74,_ZSt3getILm0EJPK9ErrorCaseSt14default_deleteIS1_EEERNSt13tuple_elementIXT_ESt5tupleIJDpT0_EEE4typeERS9_
FNDA:4,_ZSt3getILm0EJPN7testing8internal19TestMetaFactoryBaseI13ArgumentsCaseEESt14default_deleteIS4_EEERNSt13tuple_elementIXT_ESt5tupleIJDpT0_EEE4typeERSC_
FNDA:4,_ZSt3getILm0EJPN7testing8internal19TestMetaFactoryBaseI9ErrorCaseEESt14default_deleteIS4_EEERNSt13tuple_elementIXT_ESt5tupleIJDpT0_EEE4typeERSC_
FNDA:48,_ZSt3getILm0EJPN7testing8internal22ParamIteratorInterfaceI13ArgumentsCaseEESt14default_deleteIS4_EEERNSt13tuple_elementIXT_ESt5tupleIJDpT0_EEE4typeERSC_
FNDA:36,_ZSt3getILm0EJPN7testing8internal22ParamIteratorInterfaceI9ErrorCaseEESt14default_deleteIS4_EEERNSt13tuple_elementIXT_ESt5tupleIJDpT0_EEE4typeERSC_
FNDA:32,_ZSt3getILm0EJPNSt7__cxx1112basic_stringIcSt11char_traitsIcESaIcEEESt14default_deleteIS5_EEERNSt13tuple_elementIXT_ESt5tupleIJDpT0_EEE4typeERSD_
FNDA:68,_ZSt3getILm0EJPNSt7__cxx1118basic_stringstreamIcSt11char_traitsIcESaIcEEESt14default_deleteIS5_EEERNSt13tuple_elementIXT_ESt5tupleIJDpT0_EEE4typeERSD_
FNDA:20,_ZSt3getILm1EJPK13ArgumentsCaseSt14default_deleteIS1_EEERNSt13tuple_elementIXT_ESt5tupleIJDpT0_EEE4typeERS9_
FNDA:14,_ZSt3getILm1EJPK9ErrorCaseSt14default_deleteIS1_EEERNSt13tuple_elementIXT_ESt5tupleIJDpT0_EEE4typeERS9_
FNDA:2,_ZSt3getILm1EJPN7testing8internal19TestMetaFactoryBaseI13ArgumentsCaseEESt14default_deleteIS4_EEERNSt13tuple_elementIXT_ESt5tupleIJDpT0_EEE4typeERSC_
FNDA:2,_ZSt3getILm1EJPN7testing8internal19TestMetaFactoryBaseI9ErrorCaseEESt14default_deleteIS4_EEERNSt13tuple_elementIXT_ESt5tupleIJDpT0_EEE4typeERSC_
FNDA:24,_ZSt3getILm1EJPN7testing8internal22ParamIteratorInterfaceI13ArgumentsCaseEESt14default_deleteIS4_EEERNSt13tuple_elementIXT_ESt5tupleIJDpT0_EEE4typeERSC_
FNDA:18,_ZSt3getILm1EJPN7testing8internal22ParamIteratorInterfaceI9ErrorCaseEESt14default_deleteIS4_EEERNSt13tuple_elementIXT_ESt5tupleIJDpT0_EEE4typeERSC_
FNDA:0,_ZSt3getILm1EJPNSt7__cxx1112basic_stringIcSt11char_traitsIcESaIcEEESt14default_deleteIS5_EEERNSt13tuple_elementIXT_ESt5tupleIJDpT0_EEE4typeERSD_
FNDA:68,_ZSt3getILm1EJPNSt7__cxx1118basic_stringstreamIcSt11char_traitsIcESaIcEEESt14default_deleteIS5_EEERNSt13tuple_elementIXT_ESt5tupleIJDpT0_EEE4typeERSD_
FNDA:120,_ZSt3getILm0EJPK13ArgumentsCaseSt14default_deleteIS1_EEERKNSt13tuple_elementIXT_ESt5tupleIJDpT0_EEE4typeERKS9_
FNDA:84,_ZSt3getILm0EJPK9ErrorCaseSt14default_deleteIS1_EEERKNSt13tuple_elementIXT_ESt5tupleIJDpT0_EEE4typeERKS9_
FNDA:20,_ZSt3getILm0EJPN7testing8internal19TestMetaFactoryBaseI13ArgumentsCaseEESt14default_deleteIS4_EEERKNSt13tuple_elementIXT_ESt5tupleIJDpT0_EEE4typeERKSC_
FNDA:14,_ZSt3getILm0EJPN7testing8internal19TestMetaFactoryBaseI9ErrorCaseEESt14default_deleteIS4_EEERKNSt13tuple_elementIXT_ESt5tupleIJDpT0_EEE4typeERKSC_
FNDA:168,_ZSt3getILm0EJPN7testing8internal22ParamIteratorInterfaceI13ArgumentsCaseEESt14default_deleteIS4_EEERKNSt13tuple_elementIXT_ESt5tupleIJDpT0_EEE4typeERKSC_
FNDA:120,_ZSt3getILm0EJPN7testing8internal22ParamIteratorInterfaceI9ErrorCaseEESt14default_deleteIS4_EEERKNSt13tuple_elementIXT_ESt5tupleIJDpT0_EEE4typeERKSC_
FNDA:0,_ZSt3getILm0EJPNSt7__cxx1112basic_stringIcSt11char_traitsIcESaIcEEESt14default_deleteIS5_EEERKNSt13tuple_elementIXT_ESt5tupleIJDpT0_EEE4typeERKSD_
FNDA:136,_ZSt3getILm0EJPNSt7__cxx1118basic_stringstreamIcSt11char_traitsIcESaIcEEESt14default_deleteIS5_EEERKNSt13tuple_elementIXT_ESt5tupleIJDpT0_EEE4typeERKSD_
FNDA:24,_ZNSt10_Head_baseILm0EPK13ArgumentsCaseLb0EEC2Ev
FNDA:18,_ZNSt10_Head_baseILm0EPK9ErrorCaseLb0EEC2Ev
FNDA:2,_ZNSt10_Head_baseILm0EPN7testing8internal19TestMetaFactoryBaseI13ArgumentsCaseEELb0EEC2Ev
FNDA:2,_ZNSt10_Head_baseILm0EPN7testing8internal19TestMetaFactoryBaseI9ErrorCaseEELb0EEC2Ev
FNDA:24,_ZNSt10_Head_baseILm0EPN7testing8internal22ParamIteratorInterfaceI13ArgumentsCaseEELb0EEC2Ev
FNDA:18,_ZNSt10_Head_baseILm0EPN7testing8internal22ParamIteratorInterfaceI9ErrorCaseEELb0EEC2Ev
FNDA:0,_ZNSt10_Head_baseILm0EN7testing8internal10ValueArrayIJ13ArgumentsCaseS3_S3_S3_S3_S3_S3_S3_S3_S3_EEELb0EEC2IS4_EEOT_
FNDA:0,_ZNSt10_Head_baseILm0EN7testing8internal10ValueArrayIJ9ErrorCaseS3_S3_S3_S3_S3_S3_EEELb0EEC2IS4_EEOT_
FNDA:0,_ZSt10make_tupleIJN7testing8internal10ValueArrayIJ13ArgumentsCaseS3_S3_S3_S3_S3_S3_S3_S3_S3_EEEEESt5tupleIJDpNSt25__strip_reference_wrapperINSt5decayIT_E4typeEE6__typeEEEDpOS8_
FNDA:0,_ZSt10make_tupleIJN7testing8internal10ValueArrayIJ9ErrorCaseS3_S3_S3_S3_S3_S3_EEEEESt5tupleIJDpNSt25__strip_reference_wrapperINSt5decayIT_E4typeEE6__typeEEEDpOS8_
FNDA:104,_ZNSt10_Head_baseILm0EPK13ArgumentsCaseLb0EE7_M_headERS3_
FNDA:74,_ZNSt10_Head_baseILm0EPK9ErrorCaseLb0EE7_M_headERS3_
FNDA:4,_ZNSt10_Head_baseILm0EPN7testing8internal19TestMetaFactoryBaseI13ArgumentsCaseEELb0EE7_M_headERS6_
FNDA:4,_ZNSt10_Head_baseILm0EPN7testing8internal19TestMetaFactoryBaseI9ErrorCaseEELb0EE7_M_headERS6_
FNDA:48,_ZNSt10_Head_baseILm0EPN7testing8internal22ParamIteratorInterfaceI13ArgumentsCaseEELb0EE7_M_headERS6_
FNDA:36,_ZNSt10_Head_baseILm0EPN7testing8internal22ParamIteratorInterfaceI9ErrorCaseEELb0EE7_M_headERS6_
FNDA:32,_ZNSt10_Head_baseILm0EPNSt7__cxx1112basic_stringIcSt11char_traitsIcESaIcEEELb0EE7_M_headERS7_
FNDA:68,_ZNSt10_Head_baseILm0EPNSt7__cxx1118basic_stringstreamIcSt11char_traitsIcESaIcEEELb0EE7_M_headERS7_
FNDA:120,_ZNSt10_Head_baseILm0EPK13ArgumentsCaseLb0EE7_M_headERKS3_
FNDA:84,_ZNSt10_Head_baseILm0EPK9ErrorCaseLb0EE7_M_headERKS3_
FNDA:20,_ZNSt10_Head_baseILm0EPN7testing8internal19TestMetaFactoryBaseI13ArgumentsCaseEELb0EE7_M_headERKS6_
FNDA:14,_ZNSt10_Head_baseILm0EPN7testing8internal19TestMetaFactoryBaseI9ErrorCaseEELb0EE7_M_headERKS6_
FNDA:168,_ZNSt10_Head_baseILm0EPN7testing8internal22ParamIteratorInterfaceI13ArgumentsCaseEELb0EE7_M_headERKS6_
FNDA:120,_ZNSt10_Head_baseILm0EPN7testing8internal22ParamIteratorInterfaceI9ErrorCaseEELb0EE7_M_headERKS6_
FNDA:0,_ZNSt10_Head_baseILm0EPNSt7__cxx1112basic_stringIcSt11char_traitsIcESaIcEEELb0EE7_M_headERKS7_
FNDA:136,_ZNSt10_Head_baseILm0EPNSt7__cxx1118basic_stringstreamIcSt11char_traitsIcESaIcEEELb0EE7_M_headERKS7_
FNDA:104,_ZNSt11_Tuple_implILm0EJPK13ArgumentsCaseSt14default_deleteIS1_EEE7_M_headERS5_
FNDA:74,_ZNSt11_Tuple_implILm0EJPK9ErrorCaseSt14default_deleteIS1_EEE7_M_headERS5_
FNDA:4,_ZNSt11_Tuple_implILm0EJPN7testing8internal19TestMetaFactoryBaseI13ArgumentsCaseEESt14default_deleteIS4_EEE7_M_headERS8_
FNDA:4,_ZNSt11_Tuple_implILm0EJPN7testing8internal19TestMetaFactoryBaseI9ErrorCaseEESt14default_deleteIS4_EEE7_M_headERS8_
FNDA:48,_ZNSt11_Tuple_implILm0EJPN7testing8internal22ParamIteratorInterfaceI13ArgumentsCaseEESt14default_deleteIS4_EEE7_M_headERS8_
FNDA:36,_ZNSt11_Tuple_implILm0EJPN7testing8internal22ParamIteratorInterfaceI9ErrorCaseEESt14default_deleteIS4_EEE7_M_headERS8_
FNDA:32,_ZNSt11_Tuple_implILm0EJPNSt7__cxx1112basic_stringIcSt11char_traitsIcESaIcEEESt14default_deleteIS5_EEE7_M_headERS9_
FNDA:68,_ZNSt11_Tuple_implILm0EJPNSt7__cxx1118basic_stringstreamIcSt11char_traitsIcESaIcEEESt14default_deleteIS5_EEE7_M_headERS9_
FNDA:120,_ZNSt11_Tuple_implILm0EJPK13ArgumentsCaseSt14default_deleteIS1_EEE7_M_headERKS5_
FNDA:84,_ZNSt11_Tuple_implILm0EJPK9ErrorCaseSt14default_deleteIS1_EEE7_M_headERKS5_
FNDA:20,_ZNSt11_Tuple_implILm0EJPN7testing8internal19TestMetaFactoryBaseI13ArgumentsCaseEESt14default_deleteIS4_EEE7_M_headERKS8_
FNDA:14,_ZNSt11_Tuple_implILm0EJPN7testing8internal19TestMetaFactoryBaseI9ErrorCaseEESt14default_deleteIS4_EEE7_M_headERKS8_
FNDA:168,_ZNSt11_Tuple_implILm0EJPN7testing8internal22ParamIteratorInterfaceI13ArgumentsCaseEESt14default_deleteIS4_EEE7_M_headERKS8_
FNDA:120,_ZNSt11_Tuple_implILm0EJPN7testing8internal22ParamIteratorInterfaceI9ErrorCaseEESt14default_deleteIS4_EEE7_M_headERKS8_
FNDA:0,_ZNSt11_Tuple_implILm0EJPNSt7__cxx1112basic_stringIcSt11char_traitsIcESaIcEEESt14default_deleteIS5_EEE7_M_headERKS9_
FNDA:136,_ZNSt11_Tuple_implILm0EJPNSt7__cxx1118basic_stringstreamIcSt11char_traitsIcESaIcEEESt14default_deleteIS5_EEE7_M_headERKS9_
FNDA:24,_ZNSt11_Tuple_implILm0EJPK13ArgumentsCaseSt14default_deleteIS1_EEEC2Ev
FNDA:18,_ZNSt11_Tuple_implILm0EJPK9ErrorCaseSt14default_deleteIS1_EEEC2Ev
FNDA:2,_ZNSt11_Tuple_implILm0EJPN7testing8internal19TestMetaFactoryBaseI13ArgumentsCaseEESt14default_deleteIS4_EEEC2Ev
FNDA:2,_ZNSt11_Tuple_implILm0EJPN7testing8internal19TestMetaFactoryBaseI9ErrorCaseEESt14default_deleteIS4_EEEC2Ev
FNDA:24,_ZNSt11_Tuple_implILm0EJPN7testing8internal22ParamIteratorInterfaceI13ArgumentsCaseEESt14default_deleteIS4_EEEC2Ev
FNDA:18,_ZNSt11_Tuple_implILm0EJPN7testing8internal22ParamIteratorInterfaceI9ErrorCaseEESt14default_deleteIS4_EEEC2Ev
FNDA:20,_ZNSt11_Tuple_implILm1EJSt14default_deleteIK13ArgumentsCaseEEE7_M_headERS4_
FNDA:14,_ZNSt11_Tuple_implILm1EJSt14default_deleteIK9ErrorCaseEEE7_M_headERS4_
FNDA:2,_ZNSt11_Tuple_implILm1EJSt14default_deleteIN7testing8internal19TestMetaFactoryBaseI13ArgumentsCaseEEEEE7_M_headERS7_
FNDA:2,_ZNSt11_Tuple_implILm1EJSt14default_deleteIN7testing8internal19TestMetaFactoryBaseI9ErrorCaseEEEEE7_M_headERS7_
FNDA:24,_ZNSt11_Tuple_implILm1EJSt14default_deleteIN7testing8internal22ParamIteratorInterfaceI13ArgumentsCaseEEEEE7_M_headERS7_
FNDA:18,_ZNSt11_Tuple_implILm1EJSt14default_deleteIN7testing8internal22ParamIteratorInterfaceI9ErrorCaseEEEEE7_M_headERS7_
FNDA:0,_ZNSt11_Tuple_implILm1EJSt14default_deleteINSt7__cxx1112basic_stringIcSt11char_traitsIcESaIcEEEEEE7_M_headERS8_
FNDA:68,_ZNSt11_Tuple_implILm1EJSt14default_deleteINSt7__cxx1118basic_stringstreamIcSt11char_traitsIcESaIcEEEEEE7_M_headERS8_
FNDA:24,_ZNSt11_Tuple_implILm1EJSt14default_deleteIK13ArgumentsCaseEEEC2Ev
FNDA:18,_ZNSt11_Tuple_implILm1EJSt14default_deleteIK9ErrorCaseEEEC2Ev
FNDA:2,_ZNSt11_Tuple_implILm1EJSt14default_deleteIN7testing8internal19TestMetaFactoryBaseI13ArgumentsCaseEEEEEC2Ev
FNDA:2,_ZNSt11_Tuple_implILm1EJSt14default_deleteIN7testing8internal19TestMetaFactoryBaseI9ErrorCaseEEEEEC2Ev
FNDA:24,_ZNSt11_Tuple_implILm1EJSt14default_deleteIN7testing8internal22ParamIteratorInterfaceI13ArgumentsCaseEEEEEC2Ev
FNDA:18,_ZNSt11_Tuple_implILm1EJSt14default_deleteIN7testing8internal22ParamIteratorInterfaceI9ErrorCaseEEEEEC2Ev
FNDA:0,_ZNSt11_Tuple_implILm0EJN7testing8internal10ValueArrayIJ13ArgumentsCaseS3_S3_S3_S3_S3_S3_S3_S3_S3_EEEEEC2IS4_EEOT_
FNDA:0,_ZNSt11_Tuple_implILm0EJN7testing8internal10ValueArrayIJ9ErrorCaseS3_S3_S3_S3_S3_S3_EEEEEC2IS4_EEOT_
FNDA:24,_ZNSt10_Head_baseILm1ESt14default_deleteIK13ArgumentsCaseELb1EEC2Ev
FNDA:18,_ZNSt10_Head_baseILm1ESt14default_deleteIK9ErrorCaseELb1EEC2Ev
FNDA:2,_ZNSt10_Head_baseILm1ESt14default_deleteIN7testing8internal19TestMetaFactoryBaseI13ArgumentsCaseEEELb1EEC2Ev
FNDA:2,_ZNSt10_Head_baseILm1ESt14default_deleteIN7testing8internal19TestMetaFactoryBaseI9ErrorCaseEEELb1EEC2Ev
FNDA:24,_ZNSt10_Head_baseILm1ESt14default_deleteIN7testing8internal22ParamIteratorInterfaceI13ArgumentsCaseEEELb1EEC2Ev
FNDA:18,_ZNSt10_Head_baseILm1ESt14default_deleteIN7testing8internal22ParamIteratorInterfaceI9ErrorCaseEEELb1EEC2Ev
FNDA:0,_ZNSt5tupleIJN7testing8internal10ValueArrayIJ13ArgumentsCaseS3_S3_S3_S3_S3_S3_S3_S3_S3_EEEEEC2IJS4_ELb1ELb1EEEDpOT_
FNDA:0,_ZNSt5tupleIJN7testing8internal10ValueArrayIJ9ErrorCaseS3_S3_S3_S3_S3_S3_EEEEEC2IJS4_ELb1ELb1EEEDpOT_
FNF:134
FNH:118
DA:81,88
DA:82,88
DA:125,148
DA:190,88
DA:191,88
DA:200,0
DA:201,0
DA:234,370
DA:237,662
DA:269,370
DA:272,662
DA:280,88
DA:281,88
DA:497,148
DA:503,88
DA:504,88
DA:513,0
DA:514,0
DA:515,0
DA:889,0
DA:891,0
DA:1317,88
DA:1319,88
DA:1787,518
DA:1788,518
DA:1792,662
DA:1793,662
DA:1803,518
DA:1804,518
DA:1809,662
DA:1810,662
DA:2001,0
DA:2005,0
LF:33
LH:24
end_of_record
TN:
SF:/usr/include/gtest/gtest-assertion-result.h
FN:174,174,_ZNK7testing15AssertionResultcvbEv
FN:183,185,_ZNK7testing15AssertionResult7messageEv
FN:187,187,_ZNK7testing15AssertionResult15failure_messageEv
FNDA:32,_ZNK7testing15AssertionResultcvbEv
FNDA:0,_ZNK7testing15AssertionResult7messageEv
FNDA:0,_ZNK7testing15AssertionResult15failure_messageEv
FNF:3
FNH:1
DA:174,32
DA:183,0
DA:184,0
DA:187,0
LF:4
LH:1
end_of_record
TN:
SF:/usr/include/gtest/gtest-message.h
FN:132,150,_ZN7testing7MessagelsIA2_cEERS0_RKT_
FN:132,150,_ZN7testing7MessagelsINSt7__cxx1112basic_stringIcSt11char_traitsIcESaIcEEEEERS0_RKT_
FN:132,150,_ZN7testing7MessagelsImEERS0_RKT_
FNDA:34,_ZN7testing7MessagelsIA2_cEERS0_RKT_
FNDA:68,_ZN7testing7MessagelsINSt7__cxx1112basic_stringIcSt11char_traitsIcESaIcEEEEERS0_RKT_
FNDA:34,_ZN7testing7MessagelsImEERS0_RKT_
FNF:3
FNH:3
DA:132,136
DA:148,136
DA:149,136
LF:3
LH:3
end_of_record
TN:
SF:/usr/include/gtest/gtest-param-test.h
FN:297,301,_ZN7testing8ValuesInIN9__gnu_cxx17__normal_iteratorIPK13ArgumentsCaseSt6vectorIS3_SaIS3_EEEEEENS_8internal14ParamGeneratorINSt15iterator_traitsIT_E10value_typeEEESD_SD_
FN:297,301,_ZN7testing8ValuesInIN9__gnu_cxx17__normal_iteratorIPK9ErrorCaseSt6vectorIS3_SaIS3_EEEEEENS_8internal14ParamGeneratorINSt15iterator_traitsIT_E10value_typeEEESD_SD_
FN:309,312,_ZN7testing8ValuesInISt6vectorI13ArgumentsCaseSaIS2_EEEENS_8internal14ParamGeneratorINT_10value_typeEEERKS7_
FN:309,312,_ZN7testing8ValuesInISt6vectorI9ErrorCaseSaIS2_EEEENS_8internal14ParamGeneratorINT_10value_typeEEERKS7_
FN:335,337,_ZN7testing6ValuesIJ13ArgumentsCaseS1_S1_S1_S1_S1_S1_S1_S1_S1_EEENS_8internal10ValueArrayIJDpT_EEES5_
FN:335,337,_ZN7testing6ValuesIJ9ErrorCaseS1_S1_S1_S1_S1_S1_EEENS_8internal10ValueArrayIJDpT_EEES5_
FNDA:2,_ZN7testing8ValuesInIN9__gnu_cxx17__normal_iteratorIPK13ArgumentsCaseSt6vectorIS3_SaIS3_EEEEEENS_8internal14ParamGeneratorINSt15iterator_traitsIT_E10value_typeEEESD_SD_
FNDA:2,_ZN7testing8ValuesInIN9__gnu_cxx17__normal_iteratorIPK9ErrorCaseSt6vectorIS3_SaIS3_EEEEEENS_8internal14ParamGeneratorINSt15iterator_traitsIT_E10value_typeEEESD_SD_
FNDA:2,_ZN7testing8ValuesInISt6vectorI13ArgumentsCaseSaIS2_EEEENS_8internal14ParamGeneratorINT_10value_typeEEERKS7_
FNDA:2,_ZN7testing8ValuesInISt6vectorI9ErrorCaseSaIS2_EEEENS_8internal14ParamGeneratorINT_10value_typeEEERKS7_
FNDA:2,_ZN7testing6ValuesIJ13ArgumentsCaseS1_S1_S1_S1_S1_S1_S1_S1_S1_EEENS_8internal10ValueArrayIJDpT_EEES5_
FNDA:2,_ZN7testing6ValuesIJ9ErrorCaseS1_S1_S1_S1_S1_S1_EEENS_8internal10ValueArrayIJDpT_EEES5_
FNF:6
FNH:6
DA:297,4
DA:300,4
DA:309,4
DA:311,4
DA:335,4
DA:336,4
LF:6
LH:6
end_of_record
TN:
SF:/usr/include/gtest/gtest-printers.h
FN:1108,1113,_ZN7testing8internal14UniversalPrintI13ArgumentsCaseEEvRKT_PSo
FN:1108,1113,_ZN7testing8internal14UniversalPrintI9ErrorCaseEEvRKT_PSo
FN:1108,1113,_ZN7testing8internal14UniversalPrintIbEEvRKT_PSo
FN:1108,1113,_ZN7testing8internal14UniversalPrintIiEEvRKT_PSo
FN:1148,1152,_ZN7testing13PrintToStringI13ArgumentsCaseEENSt7__cxx1112basic_stringIcSt11char_traitsIcESaIcEEERKT_
FN:1148,1152,_ZN7testing13PrintToStringI9ErrorCaseEENSt7__cxx1112basic_stringIcSt11char_traitsIcESaIcEEERKT_
FN:1148,1152,_ZN7testing13PrintToStringIbEENSt7__cxx1112basic_stringIcSt11char_traitsIcESaIcEEERKT_
FN:1148,1152,_ZN7testing13PrintToStringIiEENSt7__cxx1112basic_stringIcSt11char_traitsIcESaIcEEERKT_
FN:221,226,_ZN7testing8internal52internal_stream_operator_without_lexical_name_lookup13StreamPrinter10PrintValueIivEEDTcvvlsdefp0_fp_ERKT_PSo
FN:289,295,_ZN7testing8internal15RawBytesPrinter10PrintValueI13ArgumentsCaseLm32EEEvRKT_PSo
FN:289,295,_ZN7testing8internal15RawBytesPrinter10PrintValueI9ErrorCaseLm16EEEvRKT_PSo
FN:326,337,_ZN7testing8internal17PrintWithFallbackI13ArgumentsCaseEEvRKT_PSo
FN:326,337,_ZN7testing8internal17PrintWithFallbackI9ErrorCaseEEvRKT_PSo
FN:326,337,_ZN7testing8internal17PrintWithFallbackIiEEvRKT_PSo
FN:357,359,_ZN7testing8internal19FormatForComparisonIbbE6FormatB5cxx11ERKb
FN:357,359,_ZN7testing8internal19FormatForComparisonIbiE6FormatB5cxx11ERKb
FN:357,359,_ZN7testing8internal19FormatForComparisonIibE6FormatB5cxx11ERKi
FN:357,359,_ZN7testing8internal19FormatForComparisonIiiE6FormatB5cxx11ERKi
FN:437,440,_ZN7testing8internal33FormatForComparisonFailureMessageIbbEENSt7__cxx1112basic_stringIcSt11char_traitsIcESaIcEEERKT_RKT0_
FN:437,440,_ZN7testing8internal33FormatForComparisonFailureMessageIbiEENSt7__cxx1112basic_stringIcSt11char_traitsIcESaIcEEERKT_RKT0_
FN:437,440,_ZN7testing8internal33FormatForComparisonFailureMessageIibEENSt7__cxx1112basic_stringIcSt11char_traitsIcESaIcEEERKT_RKT0_
FN:437,440,_ZN7testing8internal33FormatForComparisonFailureMessageIiiEENSt7__cxx1112basic_stringIcSt11char_traitsIcESaIcEEERKT_RKT0_
FN:464,466,_ZN7testing8internal7PrintToI13ArgumentsCaseEEvRKT_PSo
FN:464,466,_ZN7testing8internal7PrintToI9ErrorCaseEEvRKT_PSo
FN:464,466,_ZN7testing8internal7PrintToIiEEvRKT_PSo
FN:483,485,_ZN7testing8internal7PrintToEbPSo
FN:799,809,_ZN7testing8internal16UniversalPrinterI13ArgumentsCaseE5PrintERKS2_PSo
FN:799,809,_ZN7testing8internal16UniversalPrinterI9ErrorCaseE5PrintERKS2_PSo
FN:799,809,_ZN7testing8internal16UniversalPrinterIbE5PrintERKbPSo
FN:799,809,_ZN7testing8internal16UniversalPrinterIiE5PrintERKiPSo
FN:989,991,_ZN7testing8internal21UniversalTersePrinterI13ArgumentsCaseE5PrintERKS2_PSo
FN:989,991,_ZN7testing8internal21UniversalTersePrinterI9ErrorCaseE5PrintERKS2_PSo
FN:989,991,_ZN7testing8internal21UniversalTersePrinterIbE5PrintERKbPSo
FN:989,991,_ZN7testing8internal21UniversalTersePrinterIiE5PrintERKiPSo
FNDA:20,_ZN7testing8internal14UniversalPrintI13ArgumentsCaseEEvRKT_PSo
FNDA:14,_ZN7testing8internal14UniversalPrintI9ErrorCaseEEvRKT_PSo
FNDA:0,_ZN7testing8internal14UniversalPrintIbEEvRKT_PSo
FNDA:0,_ZN7testing8internal14UniversalPrintIiEEvRKT_PSo
FNDA:20,_ZN7testing13PrintToStringI13ArgumentsCaseEENSt7__cxx1112basic_stringIcSt11char_traitsIcESaIcEEERKT_
FNDA:14,_ZN7testing13PrintToStringI9ErrorCaseEENSt7__cxx1112basic_stringIcSt11char_traitsIcESaIcEEERKT_
FNDA:0,_ZN7testing13PrintToStringIbEENSt7__cxx1112basic_stringIcSt11char_traitsIcESaIcEEERKT_
FNDA:0,_ZN7testing13PrintToStringIiEENSt7__cxx1112basic_stringIcSt11char_traitsIcESaIcEEERKT_
FNDA:0,_ZN7testing8internal52internal_stream_operator_without_lexical_name_lookup13StreamPrinter10PrintValueIivEEDTcvvlsdefp0_fp_ERKT_PSo
FNDA:20,_ZN7testing8internal15RawBytesPrinter10PrintValueI13ArgumentsCaseLm32EEEvRKT_PSo
FNDA:14,_ZN7testing8internal15RawBytesPrinter10PrintValueI9ErrorCaseLm16EEEvRKT_PSo
FNDA:20,_ZN7testing8internal17PrintWithFallbackI13ArgumentsCaseEEvRKT_PSo
FNDA:14,_ZN7testing8internal17PrintWithFallbackI9ErrorCaseEEvRKT_PSo
FNDA:0,_ZN7testing8internal17PrintWithFallbackIiEEvRKT_PSo
FNDA:0,_ZN7testing8internal19FormatForComparisonIbbE6FormatB5cxx11ERKb
FNDA:0,_ZN7testing8internal19FormatForComparisonIbiE6FormatB5cxx11ERKb
FNDA:0,_ZN7testing8internal19FormatForComparisonIibE6FormatB5cxx11ERKi
FNDA:0,_ZN7testing8internal19FormatForComparisonIiiE6FormatB5cxx11ERKi
FNDA:0,_ZN7testing8internal33FormatForComparisonFailureMessageIbbEENSt7__cxx1112basic_stringIcSt11char_traitsIcESaIcEEERKT_RKT0_
FNDA:0,_ZN7testing8internal33FormatForComparisonFailureMessageIbiEENSt7__cxx1112basic_stringIcSt11char_traitsIcESaIcEEERKT_RKT0_
FNDA:0,_ZN7testing8internal33FormatForComparisonFailureMessageIibEENSt7__cxx1112basic_stringIcSt11char_traitsIcESaIcEEERKT_RKT0_
FNDA:0,_ZN7testing8internal33FormatForComparisonFailureMessageIiiEENSt7__cxx1112basic_stringIcSt11char_traitsIcESaIcEEERKT_RKT0_
FNDA:20,_ZN7testing8internal7PrintToI13ArgumentsCaseEEvRKT_PSo
FNDA:14,_ZN7testing8internal7PrintToI9ErrorCaseEEvRKT_PSo
FNDA:0,_ZN7testing8internal7PrintToIiEEvRKT_PSo
FNDA:0,_ZN7testing8internal7PrintToEbPSo
FNDA:20,_ZN7testing8internal16UniversalPrinterI13ArgumentsCaseE5PrintERKS2_PSo
FNDA:14,_ZN7testing8internal16UniversalPrinterI9ErrorCaseE5PrintERKS2_PSo
FNDA:0,_ZN7testing8internal16UniversalPrinterIbE5PrintERKbPSo
FNDA:0,_ZN7testing8internal16UniversalPrinterIiE5PrintERKiPSo
FNDA:20,_ZN7testing8internal21UniversalTersePrinterI13ArgumentsCaseE5PrintERKS2_PSo
FNDA:14,_ZN7testing8internal21UniversalTersePrinterI9ErrorCaseE5PrintERKS2_PSo
FNDA:0,_ZN7testing8internal21UniversalTersePrinterIbE5PrintERKbPSo
FNDA:0,_ZN7testing8internal21UniversalTersePrinterIiE5PrintERKiPSo
FNF:34
FNH:14
DA:221,0
DA:225,0
DA:226,0
DA:289,34
DA:290,34
DA:293,34
DA:295,34
DA:326,34
DA:336,34
DA:337,34
DA:357,0
DA:358,0
DA:437,0
DA:439,0
DA:464,34
DA:465,34
DA:466,34
DA:483,0
DA:484,0
DA:485,0
DA:799,34
DA:808,34
DA:809,34
DA:989,34
DA:990,34
DA:991,34
DA:1108,34
DA:1112,34
DA:1113,34
DA:1148,34
DA:1149,34
DA:1150,34
DA:1151,68
DA:1152,34
LF:34
LH:24
end_of_record
TN:
SF:/usr/include/gtest/gtest.h
FN:1359,1365,_ZN7testing8internal18CmpHelperEQFailureIbbEENS_15AssertionResultEPKcS4_RKT_RKT0_
FN:1359,1365,_ZN7testing8internal18CmpHelperEQFailureIibEENS_15AssertionResultEPKcS4_RKT_RKT0_
FN:1359,1365,_ZN7testing8internal18CmpHelperEQFailureIiiEENS_15AssertionResultEPKcS4_RKT_RKT0_
FN:1376,1384,_ZN7testing8internal11CmpHelperEQIbbEENS_15AssertionResultEPKcS4_RKT_RKT0_
FN:1376,1384,_ZN7testing8internal11CmpHelperEQIibEENS_15AssertionResultEPKcS4_RKT_RKT0_
FN:1376,1384,_ZN7testing8internal11CmpHelperEQIiiEENS_15AssertionResultEPKcS4_RKT_RKT0_
FN:1395,1399,_ZN7testing8internal8EqHelper7CompareIbbLPv0EEENS_15AssertionResultEPKcS6_RKT_RKT0_
FN:1395,1399,_ZN7testing8internal8EqHelper7CompareIibLPv0EEENS_15AssertionResultEPKcS6_RKT_RKT0_
FN:1395,1399,_ZN7testing8internal8EqHelper7CompareIiiLPv0EEENS_15AssertionResultEPKcS6_RKT_RKT0_
FN:1677,1677,_ZN7testing18WithParamInterfaceI13ArgumentsCaseED0Ev
FN:1677,1677,_ZN7testing18WithParamInterfaceI13ArgumentsCaseED2Ev
FN:1677,1677,_ZN7testing18WithParamInterfaceI9ErrorCaseED0Ev
FN:1677,1677,_ZN7testing18WithParamInterfaceI9ErrorCaseED2Ev
FN:1681,1686,_ZN7testing18WithParamInterfaceI13ArgumentsCaseE8GetParamEv
FN:1681,1686,_ZN7testing18WithParamInterfaceI9ErrorCaseE8GetParamEv
FN:1691,1691,_ZN7testing18WithParamInterfaceI13ArgumentsCaseE8SetParamEPKS1_
FN:1691,1691,_ZN7testing18WithParamInterfaceI9ErrorCaseE8SetParamEPKS1_
FN:256,256,_ZN7testing4Test14SetUpTestSuiteEv
FN:264,264,_ZN7testing4Test17TearDownTestSuiteEv
FN:269,269,_ZN7testing4Test16TearDownTestCaseEv
FN:270,270,_ZN7testing4Test13SetUpTestCaseEv
FN:357,357,_ZN7testing4Test5SetupEv
FNDA:0,_ZN7testing8internal18CmpHelperEQFailureIbbEENS_15AssertionResultEPKcS4_RKT_RKT0_
FNDA:0,_ZN7testing8internal18CmpHelperEQFailureIibEENS_15AssertionResultEPKcS4_RKT_RKT0_
FNDA:0,_ZN7testing8internal18CmpHelperEQFailureIiiEENS_15AssertionResultEPKcS4_RKT_RKT0_
FNDA:5,_ZN7testing8internal11CmpHelperEQIbbEENS_15AssertionResultEPKcS4_RKT_RKT0_
FNDA:10,_ZN7testing8internal11CmpHelperEQIibEENS_15AssertionResultEPKcS4_RKT_RKT0_
FNDA:17,_ZN7testing8internal11CmpHelperEQIiiEENS_15AssertionResultEPKcS4_RKT_RKT0_
FNDA:5,_ZN7testing8internal8EqHelper7CompareIbbLPv0EEENS_15AssertionResultEPKcS6_RKT_RKT0_
FNDA:10,_ZN7testing8internal8EqHelper7CompareIibLPv0EEENS_15AssertionResultEPKcS6_RKT_RKT0_
FNDA:17,_ZN7testing8internal8EqHelper7CompareIiiLPv0EEENS_15AssertionResultEPKcS6_RKT_RKT0_
FNDA:0,_ZN7testing18WithParamInterfaceI13ArgumentsCaseED0Ev
FNDA:10,_ZN7testing18WithParamInterfaceI13ArgumentsCaseED2Ev
FNDA:0,_ZN7testing18WithParamInterfaceI9ErrorCaseED0Ev
FNDA:7,_ZN7testing18WithParamInterfaceI9ErrorCaseED2Ev
FNDA:10,_ZN7testing18WithParamInterfaceI13ArgumentsCaseE8GetParamEv
FNDA:7,_ZN7testing18WithParamInterfaceI9ErrorCaseE8GetParamEv
FNDA:10,_ZN7testing18WithParamInterfaceI13ArgumentsCaseE8SetParamEPKS1_
FNDA:7,_ZN7testing18WithParamInterfaceI9ErrorCaseE8SetParamEPKS1_
FNDA:0,_ZN7testing4Test14SetUpTestSuiteEv
FNDA:0,_ZN7testing4Test17TearDownTestSuiteEv
FNDA:0,_ZN7testing4Test16TearDownTestCaseEv
FNDA:0,_ZN7testing4Test13SetUpTestCaseEv
FNDA:0,_ZN7testing4Test5SetupEv
FNF:22
FNH:12
DA:256,0
DA:264,0
DA:269,0
DA:270,0
DA:357,0
DA:1359,0
DA:1364,0
DA:1376,32
DA:1379,32
DA:1380,32
DA:1383,0
DA:1395,32
DA:1398,32
DA:1677,17
DA:1681,17
DA:1682,17
DA:1684,0
DA:1685,17
DA:1691,17
LF:19
LH:10
end_of_record
TN:
SF:/usr/include/gtest/internal/gtest-internal.h
FN:1217,1218,_ZN7testing8internal17FlatTupleElemBaseINS0_9FlatTupleIJ13ArgumentsCaseS3_S3_S3_S3_S3_S3_S3_S3_S3_EEELm0EEC2IS3_EENS0_21FlatTupleConstructTagEOT_
FN:1217,1218,_ZN7testing8internal17FlatTupleElemBaseINS0_9FlatTupleIJ13ArgumentsCaseS3_S3_S3_S3_S3_S3_S3_S3_S3_EEELm1EEC2IS3_EENS0_21FlatTupleConstructTagEOT_
FN:1217,1218,_ZN7testing8internal17FlatTupleElemBaseINS0_9FlatTupleIJ13ArgumentsCaseS3_S3_S3_S3_S3_S3_S3_S3_S3_EEELm2EEC2IS3_EENS0_21FlatTupleConstructTagEOT_
FN:1217,1218,_ZN7testing8internal17FlatTupleElemBaseINS0_9FlatTupleIJ13ArgumentsCaseS3_S3_S3_S3_S3_S3_S3_S3_S3_EEELm3EEC2IS3_EENS0_21FlatTupleConstructTagEOT_
FN:1217,1218,_ZN7testing8internal17FlatTupleElemBaseINS0_9FlatTupleIJ13ArgumentsCaseS3_S3_S3_S3_S3_S3_S3_S3_S3_EEELm4EEC2IS3_EENS0_21FlatTupleConstructTagEOT_
FN:1217,1218,_ZN7testing8internal17FlatTupleElemBaseINS0_9FlatTupleIJ13ArgumentsCaseS3_S3_S3_S3_S3_S3_S3_S3_S3_EEELm5EEC2IS3_EENS0_21FlatTupleConstructTagEOT_
FN:1217,1218,_ZN7testing8internal17FlatTupleElemBaseINS0_9FlatTupleIJ13ArgumentsCaseS3_S3_S3_S3_S3_S3_S3_S3_S3_EEELm6EEC2IS3_EENS0_21FlatTupleConstructTagEOT_
FN:1217,1218,_ZN7testing8internal17FlatTupleElemBaseINS0_9FlatTupleIJ13ArgumentsCaseS3_S3_S3_S3_S3_S3_S3_S3_S3_EEELm7EEC2IS3_EENS0_21FlatTupleConstructTagEOT_
FN:1217,1218,_ZN7testing8internal17FlatTupleElemBaseINS0_9FlatTupleIJ13ArgumentsCaseS3_S3_S3_S3_S3_S3_S3_S3_S3_EEELm8EEC2IS3_EENS0_21FlatTupleConstructTagEOT_
FN:1217,1218,_ZN7testing8internal17FlatTupleElemBaseINS0_9FlatTupleIJ13ArgumentsCaseS3_S3_S3_S3_S3_S3_S3_S3_S3_EEELm9EEC2IS3_EENS0_21FlatTupleConstructTagEOT_
FN:1217,1218,_ZN7testing8internal17FlatTupleElemBaseINS0_9FlatTupleIJ9ErrorCaseS3_S3_S3_S3_S3_S3_EEELm0EEC2IS3_EENS0_21FlatTupleConstructTagEOT_
FN:1217,1218,_ZN7testing8internal17FlatTupleElemBaseINS0_9FlatTupleIJ9ErrorCaseS3_S3_S3_S3_S3_S3_EEELm1EEC2IS3_EENS0_21FlatTupleConstructTagEOT_
FN:1217,1218,_ZN7testing8internal17FlatTupleElemBaseINS0_9FlatTupleIJ9ErrorCaseS3_S3_S3_S3_S3_S3_EEELm2EEC2IS3_EENS0_21FlatTupleConstructTagEOT_
FN:1217,1218,_ZN7testing8internal17FlatTupleElemBaseINS0_9FlatTupleIJ9ErrorCaseS3_S3_S3_S3_S3_S3_EEELm3EEC2IS3_EENS0_21FlatTupleConstructTagEOT_
FN:1217,1218,_ZN7testing8internal17FlatTupleElemBaseINS0_9FlatTupleIJ9ErrorCaseS3_S3_S3_S3_S3_S3_EEELm4EEC2IS3_EENS0_21FlatTupleConstructTagEOT_
FN:1217,1218,_ZN7testing8internal17FlatTupleElemBaseINS0_9FlatTupleIJ9ErrorCaseS3_S3_S3_S3_S3_S3_EEELm5EEC2IS3_EENS0_21FlatTupleConstructTagEOT_
FN:1217,1218,_ZN7testing8internal17FlatTupleElemBaseINS0_9FlatTupleIJ9ErrorCaseS3_S3_S3_S3_S3_S3_EEELm6EEC2IS3_EENS0_21FlatTupleConstructTagEOT_
FN:1231,1233,_ZN7testing8internal13FlatTupleBaseINS0_9FlatTupleIJ13ArgumentsCaseS3_S3_S3_S3_S3_S3_S3_S3_S3_EEENS0_13IndexSequenceIJLm0ELm1ELm2ELm3ELm4ELm5ELm6ELm7ELm8ELm9EEEEEC2IJS3_S3_S3_S3_S3_S3_S3_S3_S3_S3_EEENS0_21FlatTupleConstructTagEDpOT_
FN:1231,1233,_ZN7testing8internal13FlatTupleBaseINS0_9FlatTupleIJ9ErrorCaseS3_S3_S3_S3_S3_S3_EEENS0_13IndexSequenceIJLm0ELm1ELm2ELm3ELm4ELm5ELm6EEEEEC2IJS3_S3_S3_S3_S3_S3_S3_EEENS0_21FlatTupleConstructTagEDpOT_
FN:1236,1238,_ZNK7testing8internal13FlatTupleBaseINS0_9FlatTupleIJ13ArgumentsCaseS3_S3_S3_S3_S3_S3_S3_S3_S3_EEENS0_13IndexSequenceIJLm0ELm1ELm2ELm3ELm4ELm5ELm6ELm7ELm8ELm9EEEEE3GetILm0EEERKNS0_12ElemFromListIXT_EJS3_S3_S3_S3_S3_S3_S3_S3_S3_S3_EE4typeEv
FN:1236,1238,_ZNK7testing8internal13FlatTupleBaseINS0_9FlatTupleIJ13ArgumentsCaseS3_S3_S3_S3_S3_S3_S3_S3_S3_EEENS0_13IndexSequenceIJLm0ELm1ELm2ELm3ELm4ELm5ELm6ELm7ELm8ELm9EEEEE3GetILm1EEERKNS0_12ElemFromListIXT_EJS3_S3_S3_S3_S3_S3_S3_S3_S3_S3_EE4typeEv
FN:1236,1238,_ZNK7testing8internal13FlatTupleBaseINS0_9FlatTupleIJ13ArgumentsCaseS3_S3_S3_S3_S3_S3_S3_S3_S3_EEENS0_13IndexSequenceIJLm0ELm1ELm2ELm3ELm4ELm5ELm6ELm7ELm8ELm9EEEEE3GetILm2EEERKNS0_12ElemFromListIXT_EJS3_S3_S3_S3_S3_S3_S3_S3_S3_S3_EE4typeEv
FN:1236,1238,_ZNK7testing8internal13FlatTupleBaseINS0_9FlatTupleIJ13ArgumentsCaseS3_S3_S3_S3_S3_S3_S3_S3_S3_EEENS0_13IndexSequenceIJLm0ELm1ELm2ELm3ELm4ELm5ELm6ELm7ELm8ELm9EEEEE3GetILm3EEERKNS0_12ElemFromListIXT_EJS3_S3_S3_S3_S3_S3_S3_S3_S3_S3_EE4typeEv
FN:1236,1238,_ZNK7testing8internal13FlatTupleBaseINS0_9FlatTupleIJ13ArgumentsCaseS3_S3_S3_S3_S3_S3_S3_S3_S3_EEENS0_13IndexSequenceIJLm0ELm1ELm2ELm3ELm4ELm5ELm6ELm7ELm8ELm9EEEEE3GetILm4EEERKNS0_12ElemFromListIXT_EJS3_S3_S3_S3_S3_S3_S3_S3_S3_S3_EE4typeEv
FN:1236,1238,_ZNK7testing8internal13FlatTupleBaseINS0_9FlatTupleIJ13ArgumentsCaseS3_S3_S3_S3_S3_S3_S3_S3_S3_EEENS0_13IndexSequenceIJLm0ELm1ELm2ELm3ELm4ELm5ELm6ELm7ELm8ELm9EEEEE3GetILm5EEERKNS0_12ElemFromListIXT_EJS3_S3_S3_S3_S3_S3_S3_S3_S3_S3_EE4typeEv
FN:1236,1238,_ZNK7testing8internal13FlatTupleBaseINS0_9FlatTupleIJ13ArgumentsCaseS3_S3_S3_S3_S3_S3_S3_S3_S3_EEENS0_13IndexSequenceIJLm0ELm1ELm2ELm3ELm4ELm5ELm6ELm7ELm8ELm9EEEEE3GetILm6EEERKNS0_12ElemFromListIXT_EJS3_S3_S3_S3_S3_S3_S3_S3_S3_S3_EE4typeEv
FN:1236,1238,_ZNK7testing8internal13FlatTupleBaseINS0_9FlatTupleIJ13ArgumentsCaseS3_S3_S3_S3_S3_S3_S3_S3_S3_EEENS0_13IndexSequenceIJLm0ELm1ELm2ELm3ELm4ELm5ELm6ELm7ELm8ELm9EEEEE3GetILm7EEERKNS0_12ElemFromListIXT_EJS3_S3_S3_S3_S3_S3_S3_S3_S3_S3_EE4typeEv
FN:1236,1238,_ZNK7testing8internal13FlatTupleBaseINS0_9FlatTupleIJ13ArgumentsCaseS3_S3_S3_S3_S3_S3_S3_S3_S3_EEENS0_13IndexSequenceIJLm0ELm1ELm2ELm3ELm4ELm5ELm6ELm7ELm8ELm9EEEEE3GetILm8EEERKNS0_12ElemFromListIXT_EJS3_S3_S3_S3_S3_S3_S3_S3_S3_S3_EE4typeEv
FN:1236,1238,_ZNK7testing8internal13FlatTupleBaseINS0_9FlatTupleIJ13ArgumentsCaseS3_S3_S3_S3_S3_S3_S3_S3_S3_EEENS0_13IndexSequenceIJLm0ELm1ELm2ELm3ELm4ELm5ELm6ELm7ELm8ELm9EEEEE3GetILm9EEERKNS0_12ElemFromListIXT_EJS3_S3_S3_S3_S3_S3_S3_S3_S3_S3_EE4typeEv
FN:1236,1238,_ZNK7testing8internal13FlatTupleBaseINS0_9FlatTupleIJ9ErrorCaseS3_S3_S3_S3_S3_S3_EEENS0_13IndexSequenceIJLm0ELm1ELm2ELm3ELm4ELm5ELm6EEEEE3GetILm0EEERKNS0_12ElemFromListIXT_EJS3_S3_S3_S3_S3_S3_S3_EE4typeEv
FN:1236,1238,_ZNK7testing8internal13FlatTupleBaseINS0_9FlatTupleIJ9ErrorCaseS3_S3_S3_S3_S3_S3_EEENS0_13IndexSequenceIJLm0ELm1ELm2ELm3ELm4ELm5ELm6EEEEE3GetILm1EEERKNS0_12ElemFromListIXT_EJS3_S3_S3_S3_S3_S3_S3_EE4typeEv
FN:1236,1238,_ZNK7testing8internal13FlatTupleBaseINS0_9FlatTupleIJ9ErrorCaseS3_S3_S3_S3_S3_S3_EEENS0_13IndexSequenceIJLm0ELm1ELm2ELm3ELm4ELm5ELm6EEEEE3GetILm2EEERKNS0_12ElemFromListIXT_EJS3_S3_S3_S3_S3_S3_S3_EE4typeEv
FN:1236,1238,_ZNK7testing8internal13FlatTupleBaseINS0_9FlatTupleIJ9ErrorCaseS3_S3_S3_S3_S3_S3_EEENS0_13IndexSequenceIJLm0ELm1ELm2ELm3ELm4ELm5ELm6EEEEE3GetILm3EEERKNS0_12ElemFromListIXT_EJS3_S3_S3_S3_S3_S3_S3_EE4typeEv
FN:1236,1238,_ZNK7testing8internal13FlatTupleBaseINS0_9FlatTupleIJ9ErrorCaseS3_S3_S3_S3_S3_S3_EEENS0_13IndexSequenceIJLm0ELm1ELm2ELm3ELm4ELm5ELm6EEEEE3GetILm4EEERKNS0_12ElemFromListIXT_EJS3_S3_S3_S3_S3_S3_S3_EE4typeEv
FN:1236,1238,_ZNK7testing8internal13FlatTupleBaseINS0_9FlatTupleIJ9ErrorCaseS3_S3_S3_S3_S3_S3_EEENS0_13IndexSequenceIJLm0ELm1ELm2ELm3ELm4ELm5ELm6EEEEE3GetILm5EEERKNS0_12ElemFromListIXT_EJS3_S3_S3_S3_S3_S3_S3_EE4typeEv
FN:1236,1238,_ZNK7testing8internal13FlatTupleBaseINS0_9FlatTupleIJ9ErrorCaseS3_S3_S3_S3_S3_S3_EEENS0_13IndexSequenceIJLm0ELm1ELm2ELm3ELm4ELm5ELm6EEEEE3GetILm6EEERKNS0_12ElemFromListIXT_EJS3_S3_S3_S3_S3_S3_S3_EE4typeEv
FN:1275,1276,_ZN7testing8internal9FlatTupleIJ13ArgumentsCaseS2_S2_S2_S2_S2_S2_S2_S2_S2_EEC2IJS2_S2_S2_S2_S2_S2_S2_S2_S2_S2_EEENS0_21FlatTupleConstructTagEDpOT_
FN:1275,1276,_ZN7testing8internal9FlatTupleIJ9ErrorCaseS2_S2_S2_S2_S2_S2_EEC2IJS2_S2_S2_S2_S2_S2_S2_EEENS0_21FlatTupleConstructTagEDpOT_
FN:419,425,_ZN7testing8internal9GetTypeIdI21ErrorHandlingHelpTestEEPKvv
FN:419,425,_ZN7testing8internal9GetTypeIdI26ErrorHandlingTestArgumentsEEPKvv
FN:438,438,_ZN7testing8internal15TestFactoryBaseD0Ev
FN:438,438,_ZN7testing8internal15TestFactoryBaseD2Ev
FN:445,445,_ZN7testing8internal15TestFactoryBaseC2Ev
FN:457,457,_ZN7testing8internal15TestFactoryImplI31isPositive_HandlesNegative_TestE10CreateTestEv
FN:457,457,_ZN7testing8internal15TestFactoryImplI32isPositive_HandlesPositives_TestE10CreateTestEv
FN:457,457,_ZN7testing8internal15TestFactoryImplI40checkArguments_HandlesCorrectValues_TestE10CreateTestEv
FN:457,457,_ZN7testing8internal15TestFactoryImplI42checkArguments_HandlesIncorrectValues_TestE10CreateTestEv
FN:478,479,_ZN7testing8internal12CodeLocationC2ERKNSt7__cxx1112basic_stringIcSt11char_traitsIcESaIcEEEi
FN:491,494,_ZN7testing8internal19GetNotDefaultOrNullEPFvvES2_
FN:506,525,_ZN7testing8internal16SuiteApiResolverI21ErrorHandlingHelpTestE19GetSetUpCaseOrSuiteEPKci
FN:506,525,_ZN7testing8internal16SuiteApiResolverI26ErrorHandlingTestArgumentsE19GetSetUpCaseOrSuiteEPKci
FN:506,525,_ZN7testing8internal16SuiteApiResolverINS_4TestEE19GetSetUpCaseOrSuiteEPKci
FN:527,546,_ZN7testing8internal16SuiteApiResolverI21ErrorHandlingHelpTestE22GetTearDownCaseOrSuiteEPKci
FN:527,546,_ZN7testing8internal16SuiteApiResolverI26ErrorHandlingTestArgumentsE22GetTearDownCaseOrSuiteEPKci
FN:527,546,_ZN7testing8internal16SuiteApiResolverINS_4TestEE22GetTearDownCaseOrSuiteEPKci
FN:829,829,_ZN7testing8internal11AlwaysFalseEv
FNDA:2,_ZN7testing8internal17FlatTupleElemBaseINS0_9FlatTupleIJ13ArgumentsCaseS3_S3_S3_S3_S3_S3_S3_S3_S3_EEELm0EEC2IS3_EENS0_21FlatTupleConstructTagEOT_
FNDA:2,_ZN7testing8internal17FlatTupleElemBaseINS0_9FlatTupleIJ13ArgumentsCaseS3_S3_S3_S3_S3_S3_S3_S3_S3_EEELm1EEC2IS3_EENS0_21FlatTupleConstructTagEOT_
FNDA:2,_ZN7testing8internal17FlatTupleElemBaseINS0_9FlatTupleIJ13ArgumentsCaseS3_S3_S3_S3_S3_S3_S3_S3_S3_EEELm2EEC2IS3_EENS0_21FlatTupleConstructTagEOT_
FNDA:2,_ZN7testing8internal17FlatTupleElemBaseINS0_9FlatTupleIJ13ArgumentsCaseS3_S3_S3_S3_S3_S3_S3_S3_S3_EEELm3EEC2IS3_EENS0_21FlatTupleConstructTagEOT_
FNDA:2,_ZN7testing8internal17FlatTupleElemBaseINS0_9FlatTupleIJ13ArgumentsCaseS3_S3_S3_S3_S3_S3_S3_S3_S3_EEELm4EEC2IS3_EENS0_21FlatTupleConstructTagEOT_
FNDA:2,_ZN7testing8internal17FlatTupleElemBaseINS0_9FlatTupleIJ13ArgumentsCaseS3_S3_S3_S3_S3_S3_S3_S3_S3_EEELm5EEC2IS3_EENS0_21FlatTupleConstructTagEOT_
FNDA:2,_ZN7testing8internal17FlatTupleElemBaseINS0_9FlatTupleIJ13ArgumentsCaseS3_S3_S3_S3_S3_S3_S3_S3_S3_EEELm6EEC2IS3_EENS0_21FlatTupleConstructTagEOT_
FNDA:2,_ZN7testing8internal17FlatTupleElemBaseINS0_9FlatTupleIJ13ArgumentsCaseS3_S3_S3_S3_S3_S3_S3_S3_S3_EEELm7EEC2IS3_EENS0_21FlatTupleConstructTagEOT_
FNDA:2,_ZN7testing8internal17FlatTupleElemBaseINS0_9FlatTupleIJ13ArgumentsCaseS3_S3_S3_S3_S3_S3_S3_S3_S3_EEELm8EEC2IS3_EENS0_21FlatTupleConstructTagEOT_
FNDA:2,_ZN7testing8internal17FlatTupleElemBaseINS0_9FlatTupleIJ13ArgumentsCaseS3_S3_S3_S3_S3_S3_S3_S3_S3_EEELm9EEC2IS3_EENS0_21FlatTupleConstructTagEOT_
FNDA:2,_ZN7testing8internal17FlatTupleElemBaseINS0_9FlatTupleIJ9ErrorCaseS3_S3_S3_S3_S3_S3_EEELm0EEC2IS3_EENS0_21FlatTupleConstructTagEOT_
FNDA:2,_ZN7testing8internal17FlatTupleElemBaseINS0_9FlatTupleIJ9ErrorCaseS3_S3_S3_S3_S3_S3_EEELm1EEC2IS3_EENS0_21FlatTupleConstructTagEOT_
FNDA:2,_ZN7testing8internal17FlatTupleElemBaseINS0_9FlatTupleIJ9ErrorCaseS3_S3_S3_S3_S3_S3_EEELm2EEC2IS3_EENS0_21FlatTupleConstructTagEOT_
FNDA:2,_ZN7testing8internal17FlatTupleElemBaseINS0_9FlatTupleIJ9ErrorCaseS3_S3_S3_S3_S3_S3_EEELm3EEC2IS3_EENS0_21FlatTupleConstructTagEOT_
FNDA:2,_ZN7testing8internal17FlatTupleElemBaseINS0_9FlatTupleIJ9ErrorCaseS3_S3_S3_S3_S3_S3_EEELm4EEC2IS3_EENS0_21FlatTupleConstructTagEOT_
FNDA:2,_ZN7testing8internal17FlatTupleElemBaseINS0_9FlatTupleIJ9ErrorCaseS3_S3_S3_S3_S3_S3_EEELm5EEC2IS3_EENS0_21FlatTupleConstructTagEOT_
FNDA:2,_ZN7testing8internal17FlatTupleElemBaseINS0_9FlatTupleIJ9ErrorCaseS3_S3_S3_S3_S3_S3_EEELm6EEC2IS3_EENS0_21FlatTupleConstructTagEOT_
FNDA:2,_ZN7testing8internal13FlatTupleBaseINS0_9FlatTupleIJ13ArgumentsCaseS3_S3_S3_S3_S3_S3_S3_S3_S3_EEENS0_13IndexSequenceIJLm0ELm1ELm2ELm3ELm4ELm5ELm6ELm7ELm8ELm9EEEEEC2IJS3_S3_S3_S3_S3_S3_S3_S3_S3_S3_EEENS0_21FlatTupleConstructTagEDpOT_
FNDA:2,_ZN7testing8internal13FlatTupleBaseINS0_9FlatTupleIJ9ErrorCaseS3_S3_S3_S3_S3_S3_EEENS0_13IndexSequenceIJLm0ELm1ELm2ELm3ELm4ELm5ELm6EEEEEC2IJS3_S3_S3_S3_S3_S3_S3_EEENS0_21FlatTupleConstructTagEDpOT_
FNDA:2,_ZNK7testing8internal13FlatTupleBaseINS0_9FlatTupleIJ13ArgumentsCaseS3_S3_S3_S3_S3_S3_S3_S3_S3_EEENS0_13IndexSequenceIJLm0ELm1ELm2ELm3ELm4ELm5ELm6ELm7ELm8ELm9EEEEE3GetILm0EEERKNS0_12ElemFromListIXT_EJS3_S3_S3_S3_S3_S3_S3_S3_S3_S3_EE4typeEv
FNDA:2,_ZNK7testing8internal13FlatTupleBaseINS0_9FlatTupleIJ13ArgumentsCaseS3_S3_S3_S3_S3_S3_S3_S3_S3_EEENS0_13IndexSequenceIJLm0ELm1ELm2ELm3ELm4ELm5ELm6ELm7ELm8ELm9EEEEE3GetILm1EEERKNS0_12ElemFromListIXT_EJS3_S3_S3_S3_S3_S3_S3_S3_S3_S3_EE4typeEv
FNDA:2,_ZNK7testing8internal13FlatTupleBaseINS0_9FlatTupleIJ13ArgumentsCaseS3_S3_S3_S3_S3_S3_S3_S3_S3_EEENS0_13IndexSequenceIJLm0ELm1ELm2ELm3ELm4ELm5ELm6ELm7ELm8ELm9EEEEE3GetILm2EEERKNS0_12ElemFromListIXT_EJS3_S3_S3_S3_S3_S3_S3_S3_S3_S3_EE4typeEv
FNDA:2,_ZNK7testing8internal13FlatTupleBaseINS0_9FlatTupleIJ13ArgumentsCaseS3_S3_S3_S3_S3_S3_S3_S3_S3_EEENS0_13IndexSequenceIJLm0ELm1ELm2ELm3ELm4ELm5ELm6ELm7ELm8ELm9EEEEE3GetILm3EEERKNS0_12ElemFromListIXT_EJS3_S3_S3_S3_S3_S3_S3_S3_S3_S3_EE4typeEv
FNDA:2,_ZNK7testing8internal13FlatTupleBaseINS0_9FlatTupleIJ13ArgumentsCaseS3_S3_S3_S3_S3_S3_S3_S3_S3_EEENS0_13IndexSequenceIJLm0ELm1ELm2ELm3ELm4ELm5ELm6ELm7ELm8ELm9EEEEE3GetILm4EEERKNS0_12ElemFromListIXT_EJS3_S3_S3_S3_S3_S3_S3_S3_S3_S3_EE4typeEv
FNDA:2,_ZNK7testing8internal13FlatTupleBaseINS0_9FlatTupleIJ13ArgumentsCaseS3_S3_S3_S3_S3_S3_S3_S3_S3_EEENS0_13IndexSequenceIJLm0ELm1ELm2ELm3ELm4ELm5ELm6ELm7ELm8ELm9EEEEE3GetILm5EEERKNS0_12ElemFromListIXT_EJS3_S3_S3_S3_S3_S3_S3_S3_S3_S3_EE4typeEv
FNDA:2,_ZNK7testing8internal13FlatTupleBaseINS0_9FlatTupleIJ13ArgumentsCaseS3_S3_S3_S3_S3_S3_S3_S3_S3_EEENS0_13IndexSequenceIJLm0ELm1ELm2ELm3ELm4ELm5ELm6ELm7ELm8ELm9EEEEE3GetILm6EEERKNS0_12ElemFromListIXT_EJS3_S3_S3_S3_S3_S3_S3_S3_S3_S3_EE4typeEv
FNDA:2,_ZNK7testing8internal13FlatTupleBaseINS0_9FlatTupleIJ13ArgumentsCaseS3_S3_S3_S3_S3_S3_S3_S3_S3_EEENS0_13IndexSequenceIJLm0ELm1ELm2ELm3ELm4ELm5ELm6ELm7ELm8ELm9EEEEE3GetILm7EEERKNS0_12ElemFromListIXT_EJS3_S3_S3_S3_S3_S3_S3_S3_S3_S3_EE4typeEv
FNDA:2,_ZNK7testing8internal13FlatTupleBaseINS0_9FlatTupleIJ13ArgumentsCaseS3_S3_S3_S3_S3_S3_S3_S3_S3_EEENS0_13IndexSequenceIJLm0ELm1ELm2ELm3ELm4ELm5ELm6ELm7ELm8ELm9EEEEE3GetILm8EEERKNS0_12ElemFromListIXT_EJS3_S3_S3_S3_S3_S3_S3_S3_S3_S3_EE4typeEv
FNDA:2,_ZNK7testing8internal13FlatTupleBaseINS0_9FlatTupleIJ13ArgumentsCaseS3_S3_S3_S3_S3_S3_S3_S3_S3_EEENS0_13IndexSequenceIJLm0ELm1ELm2ELm3ELm4ELm5ELm6ELm7ELm8ELm9EEEEE3GetILm9EEERKNS0_12ElemFromListIXT_EJS3_S3_S3_S3_S3_S3_S3_S3_S3_S3_EE4typeEv
FNDA:2,_ZNK7testing8internal13FlatTupleBaseINS0_9FlatTupleIJ9ErrorCaseS3_S3_S3_S3_S3_S3_EEENS0_13IndexSequenceIJLm0ELm1ELm2ELm3ELm4ELm5ELm6EEEEE3GetILm0EEERKNS0_12ElemFromListIXT_EJS3_S3_S3_S3_S3_S3_S3_EE4typeEv
FNDA:2,_ZNK7testing8internal13FlatTupleBaseINS0_9FlatTupleIJ9ErrorCaseS3_S3_S3_S3_S3_S3_EEENS0_13IndexSequenceIJLm0ELm1ELm2ELm3ELm4ELm5ELm6EEEEE3GetILm1EEERKNS0_12ElemFromListIXT_EJS3_S3_S3_S3_S3_S3_S3_EE4typeEv
FNDA:2,_ZNK7testing8internal13FlatTupleBaseINS0_9FlatTupleIJ9ErrorCaseS3_S3_S3_S3_S3_S3_EEENS0_13IndexSequenceIJLm0ELm1ELm2ELm3ELm4ELm5ELm6EEEEE3GetILm2EEERKNS0_12ElemFromListIXT_EJS3_S3_S3_S3_S3_S3_S3_EE4typeEv
FNDA:2,_ZNK7testing8internal13FlatTupleBaseINS0_9FlatTupleIJ9ErrorCaseS3_S3_S3_S3_S3_S3_EEENS0_13IndexSequenceIJLm0ELm1ELm2ELm3ELm4ELm5ELm6EEEEE3GetILm3EEERKNS0_12ElemFromListIXT_EJS3_S3_S3_S3_S3_S3_S3_EE4typeEv
FNDA:2,_ZNK7testing8internal13FlatTupleBaseINS0_9FlatTupleIJ9ErrorCaseS3_S3_S3_S3_S3_S3_EEENS0_13IndexSequenceIJLm0ELm1ELm2ELm3ELm4ELm5ELm6EEEEE3GetILm4EEERKNS0_12ElemFromListIXT_EJS3_S3_S3_S3_S3_S3_S3_EE4typeEv
FNDA:2,_ZNK7testing8internal13FlatTupleBaseINS0_9FlatTupleIJ9ErrorCaseS3_S3_S3_S3_S3_S3_EEENS0_13IndexSequenceIJLm0ELm1ELm2ELm3ELm4ELm5ELm6EEEEE3GetILm5EEERKNS0_12ElemFromListIXT_EJS3_S3_S3_S3_S3_S3_S3_EE4typeEv
FNDA:2,_ZNK7testing8internal13FlatTupleBaseINS0_9FlatTupleIJ9ErrorCaseS3_S3_S3_S3_S3_S3_EEENS0_13IndexSequenceIJLm0ELm1ELm2ELm3ELm4ELm5ELm6EEEEE3GetILm6EEERKNS0_12ElemFromListIXT_EJS3_S3_S3_S3_S3_S3_S3_EE4typeEv
FNDA:2,_ZN7testing8internal9FlatTupleIJ13ArgumentsCaseS2_S2_S2_S2_S2_S2_S2_S2_S2_EEC2IJS2_S2_S2_S2_S2_S2_S2_S2_S2_S2_EEENS0_21FlatTupleConstructTagEDpOT_
FNDA:2,_ZN7testing8internal9FlatTupleIJ9ErrorCaseS2_S2_S2_S2_S2_S2_EEC2IJS2_S2_S2_S2_S2_S2_S2_EEENS0_21FlatTupleConstructTagEDpOT_
FNDA:18,_ZN7testing8internal9GetTypeIdI21ErrorHandlingHelpTestEEPKvv
FNDA:24,_ZN7testing8internal9GetTypeIdI26ErrorHandlingTestArgumentsEEPKvv
FNDA:0,_ZN7testing8internal15TestFactoryBaseD0Ev
FNDA:42,_ZN7testing8internal15TestFactoryBaseD2Ev
FNDA:42,_ZN7testing8internal15TestFactoryBaseC2Ev
FNDA:1,_ZN7testing8internal15TestFactoryImplI31isPositive_HandlesNegative_TestE10CreateTestEv
FNDA:1,_ZN7testing8internal15TestFactoryImplI32isPositive_HandlesPositives_TestE10CreateTestEv
FNDA:1,_ZN7testing8internal15TestFactoryImplI40checkArguments_HandlesCorrectValues_TestE10CreateTestEv
FNDA:1,_ZN7testing8internal15TestFactoryImplI42checkArguments_HandlesIncorrectValues_TestE10CreateTestEv
FNDA:20,_ZN7testing8internal12CodeLocationC2ERKNSt7__cxx1112basic_stringIcSt11char_traitsIcESaIcEEEi
FNDA:168,_ZN7testing8internal19GetNotDefaultOrNullEPFvvES2_
FNDA:14,_ZN7testing8internal16SuiteApiResolverI21ErrorHandlingHelpTestE19GetSetUpCaseOrSuiteEPKci
FNDA:20,_ZN7testing8internal16SuiteApiResolverI26ErrorHandlingTestArgumentsE19GetSetUpCaseOrSuiteEPKci
FNDA:8,_ZN7testing8internal16SuiteApiResolverINS_4TestEE19GetSetUpCaseOrSuiteEPKci
FNDA:14,_ZN7testing8internal16SuiteApiResolverI21ErrorHandlingHelpTestE22GetTearDownCaseOrSuiteEPKci
FNDA:20,_ZN7testing8internal16SuiteApiResolverI26ErrorHandlingTestArgumentsE22GetTearDownCaseOrSuiteEPKci
FNDA:8,_ZN7testing8internal16SuiteApiResolverINS_4TestEE22GetTearDownCaseOrSuiteEPKci
FNDA:34,_ZN7testing8internal11AlwaysFalseEv
FNF:56
FNH:55
DA:419,42
DA:424,42
DA:438,42
DA:445,42
DA:457,4
DA:478,20
DA:479,20
DA:491,168
DA:493,168
DA:506,42
DA:510,42
DA:512,42
DA:514,42
DA:517,0
DA:519,42
DA:527,42
DA:531,42
DA:533,42
DA:535,42
DA:538,0
DA:540,42
DA:829,34
DA:1217,34
DA:1218,34
DA:1231,4
DA:1233,4
DA:1236,34
DA:1237,34
DA:1275,4
DA:1276,4
LF:30
LH:28
end_of_record
TN:
SF:/usr/include/gtest/internal/gtest-param-util.h
FN:100,100,_ZN7testing8internal22ParamIteratorInterfaceI13ArgumentsCaseED0Ev
FN:100,100,_ZN7testing8internal22ParamIteratorInterfaceI13ArgumentsCaseED2Ev
FN:100,100,_ZN7testing8internal22ParamIteratorInterfaceI9ErrorCaseED0Ev
FN:100,100,_ZN7testing8internal22ParamIteratorInterfaceI9ErrorCaseED2Ev
FN:141,141,_ZNK7testing8internal13ParamIteratorI13ArgumentsCaseEdeEv
FN:141,141,_ZNK7testing8internal13ParamIteratorI9ErrorCaseEdeEv
FN:144,147,_ZN7testing8internal13ParamIteratorI13ArgumentsCaseEppEv
FN:144,147,_ZN7testing8internal13ParamIteratorI9ErrorCaseEppEv
FN:154,156,_ZNK7testing8internal13ParamIteratorI13ArgumentsCaseEeqERKS3_
FN:154,156,_ZNK7testing8internal13ParamIteratorI9ErrorCaseEeqERKS3_
FN:157,159,_ZNK7testing8internal13ParamIteratorI13ArgumentsCaseEneERKS3_
FN:157,159,_ZNK7testing8internal13ParamIteratorI9ErrorCaseEneERKS3_
FN:163,163,_ZN7testing8internal13ParamIteratorI13ArgumentsCaseEC2EPNS0_22ParamIteratorInterfaceIS2_EE
FN:163,163,_ZN7testing8internal13ParamIteratorI9ErrorCaseEC2EPNS0_22ParamIteratorInterfaceIS2_EE
FN:174,174,_ZN7testing8internal23ParamGeneratorInterfaceI13ArgumentsCaseED0Ev
FN:174,174,_ZN7testing8internal23ParamGeneratorInterfaceI13ArgumentsCaseED2Ev
FN:174,174,_ZN7testing8internal23ParamGeneratorInterfaceI9ErrorCaseED0Ev
FN:174,174,_ZN7testing8internal23ParamGeneratorInterfaceI9ErrorCaseED2Ev
FN:191,191,_ZN7testing8internal14ParamGeneratorI13ArgumentsCaseEC2EPNS0_23ParamGeneratorInterfaceIS2_EE
FN:191,191,_ZN7testing8internal14ParamGeneratorI9ErrorCaseEC2EPNS0_23ParamGeneratorInterfaceIS2_EE
FN:199,199,_ZNK7testing8internal14ParamGeneratorI13ArgumentsCaseE5beginEv
FN:199,199,_ZNK7testing8internal14ParamGeneratorI9ErrorCaseE5beginEv
FN:200,200,_ZNK7testing8internal14ParamGeneratorI13ArgumentsCaseE3endEv
FN:200,200,_ZNK7testing8internal14ParamGeneratorI9ErrorCaseE3endEv
FN:300,301,_ZN7testing8internal30ValuesInIteratorRangeGeneratorI13ArgumentsCaseEC2IN9__gnu_cxx17__normal_iteratorIPKS2_St6vectorIS2_SaIS2_EEEEEET_SD_
FN:300,301,_ZN7testing8internal30ValuesInIteratorRangeGeneratorI9ErrorCaseEC2IN9__gnu_cxx17__normal_iteratorIPKS2_St6vectorIS2_SaIS2_EEEEEET_SD_
FN:302,302,_ZN7testing8internal30ValuesInIteratorRangeGeneratorI13ArgumentsCaseED0Ev
FN:302,302,_ZN7testing8internal30ValuesInIteratorRangeGeneratorI13ArgumentsCaseED2Ev
FN:302,302,_ZN7testing8internal30ValuesInIteratorRangeGeneratorI9ErrorCaseED0Ev
FN:302,302,_ZN7testing8internal30ValuesInIteratorRangeGeneratorI9ErrorCaseED2Ev
FN:304,306,_ZNK7testing8internal30ValuesInIteratorRangeGeneratorI13ArgumentsCaseE5BeginEv
FN:304,306,_ZNK7testing8internal30ValuesInIteratorRangeGeneratorI9ErrorCaseE5BeginEv
FN:307,309,_ZNK7testing8internal30ValuesInIteratorRangeGeneratorI13ArgumentsCaseE3EndEv
FN:307,309,_ZNK7testing8internal30ValuesInIteratorRangeGeneratorI9ErrorCaseE3EndEv
FN:316,318,_ZN7testing8internal30ValuesInIteratorRangeGeneratorI13ArgumentsCaseE8IteratorC2EPKNS0_23ParamGeneratorInterfaceIS2_EEN9__gnu_cxx17__normal_iteratorIPKS2_St6vectorIS2_SaIS2_EEEE
FN:316,318,_ZN7testing8internal30ValuesInIteratorRangeGeneratorI9ErrorCaseE8IteratorC2EPKNS0_23ParamGeneratorInterfaceIS2_EEN9__gnu_cxx17__normal_iteratorIPKS2_St6vectorIS2_SaIS2_EEEE
FN:319,319,_ZN7testing8internal30ValuesInIteratorRangeGeneratorI13ArgumentsCaseE8IteratorD0Ev
FN:319,319,_ZN7testing8internal30ValuesInIteratorRangeGeneratorI13ArgumentsCaseE8IteratorD2Ev
FN:319,319,_ZN7testing8internal30ValuesInIteratorRangeGeneratorI9ErrorCaseE8IteratorD0Ev
FN:319,319,_ZN7testing8internal30ValuesInIteratorRangeGeneratorI9ErrorCaseE8IteratorD2Ev
FN:321,323,_ZNK7testing8internal30ValuesInIteratorRangeGeneratorI13ArgumentsCaseE8Iterator13BaseGeneratorEv
FN:321,323,_ZNK7testing8internal30ValuesInIteratorRangeGeneratorI9ErrorCaseE8Iterator13BaseGeneratorEv
FN:324,327,_ZN7testing8internal30ValuesInIteratorRangeGeneratorI13ArgumentsCaseE8Iterator7AdvanceEv
FN:324,327,_ZN7testing8internal30ValuesInIteratorRangeGeneratorI9ErrorCaseE8Iterator7AdvanceEv
FN:328,330,_ZNK7testing8internal30ValuesInIteratorRangeGeneratorI13ArgumentsCaseE8Iterator5CloneEv
FN:328,330,_ZNK7testing8internal30ValuesInIteratorRangeGeneratorI9ErrorCaseE8Iterator5CloneEv
FN:338,341,_ZNK7testing8internal30ValuesInIteratorRangeGeneratorI13ArgumentsCaseE8Iterator7CurrentEv
FN:338,341,_ZNK7testing8internal30ValuesInIteratorRangeGeneratorI9ErrorCaseE8Iterator7CurrentEv
FN:342,350,_ZNK7testing8internal30ValuesInIteratorRangeGeneratorI13ArgumentsCaseE8Iterator6EqualsERKNS0_22ParamIteratorInterfaceIS2_EE
FN:342,350,_ZNK7testing8internal30ValuesInIteratorRangeGeneratorI9ErrorCaseE8Iterator6EqualsERKNS0_22ParamIteratorInterfaceIS2_EE
FN:353,358,_ZN7testing8internal30ValuesInIteratorRangeGeneratorI13ArgumentsCaseE8IteratorC2ERKS4_
FN:353,358,_ZN7testing8internal30ValuesInIteratorRangeGeneratorI9ErrorCaseE8IteratorC2ERKS4_
FN:381,385,_ZN7testing8internal16DefaultParamNameI13ArgumentsCaseEENSt7__cxx1112basic_stringIcSt11char_traitsIcESaIcEEERKNS_13TestParamInfoIT_EE
FN:381,385,_ZN7testing8internal16DefaultParamNameI9ErrorCaseEENSt7__cxx1112basic_stringIcSt11char_traitsIcESaIcEEERKNS_13TestParamInfoIT_EE
FN:392,392,_ZN7testing8internal12TestNotEmptyIFNSt7__cxx1112basic_stringIcSt11char_traitsIcESaIcEEERKNS_13TestParamInfoI13ArgumentsCaseEEEEEvRKT_
FN:392,392,_ZN7testing8internal12TestNotEmptyIFNSt7__cxx1112basic_stringIcSt11char_traitsIcESaIcEEERKNS_13TestParamInfoI9ErrorCaseEEEEEvRKT_
FN:402,403,_ZN7testing8internal24ParameterizedTestFactoryI47ErrorHandlingTestArguments_HandleArguments_TestEC2E13ArgumentsCase
FN:402,403,_ZN7testing8internal24ParameterizedTestFactoryI49ErrorHandlingHelpTest_HandleCorrectHelpFlags_TestEC2E9ErrorCase
FN:404,407,_ZN7testing8internal24ParameterizedTestFactoryI47ErrorHandlingTestArguments_HandleArguments_TestE10CreateTestEv
FN:404,407,_ZN7testing8internal24ParameterizedTestFactoryI49ErrorHandlingHelpTest_HandleCorrectHelpFlags_TestE10CreateTestEv
FN:423,423,_ZN7testing8internal19TestMetaFactoryBaseI13ArgumentsCaseED0Ev
FN:423,423,_ZN7testing8internal19TestMetaFactoryBaseI13ArgumentsCaseED2Ev
FN:423,423,_ZN7testing8internal19TestMetaFactoryBaseI9ErrorCaseED0Ev
FN:423,423,_ZN7testing8internal19TestMetaFactoryBaseI9ErrorCaseED2Ev
FN:442,442,_ZN7testing8internal15TestMetaFactoryI47ErrorHandlingTestArguments_HandleArguments_TestEC2Ev
FN:442,442,_ZN7testing8internal15TestMetaFactoryI49ErrorHandlingHelpTest_HandleCorrectHelpFlags_TestEC2Ev
FN:444,446,_ZN7testing8internal15TestMetaFactoryI47ErrorHandlingTestArguments_HandleArguments_TestE17CreateTestFactoryE13ArgumentsCase
FN:444,446,_ZN7testing8internal15TestMetaFactoryI49ErrorHandlingHelpTest_HandleCorrectHelpFlags_TestE17CreateTestFactoryE9ErrorCase
FN:465,465,_ZN7testing8internal30ParameterizedTestSuiteInfoBaseD0Ev
FN:465,465,_ZN7testing8internal30ParameterizedTestSuiteInfoBaseD2Ev
FN:478,478,_ZN7testing8internal30ParameterizedTestSuiteInfoBaseC2Ev
FN:516,518,_ZN7testing8internal26ParameterizedTestSuiteInfoI21ErrorHandlingHelpTestEC2EPKcNS0_12CodeLocationE
FN:516,518,_ZN7testing8internal26ParameterizedTestSuiteInfoI26ErrorHandlingTestArgumentsEC2EPKcNS0_12CodeLocationE
FN:521,523,_ZNK7testing8internal26ParameterizedTestSuiteInfoI21ErrorHandlingHelpTestE16GetTestSuiteNameB5cxx11Ev
FN:521,523,_ZNK7testing8internal26ParameterizedTestSuiteInfoI26ErrorHandlingTestArgumentsE16GetTestSuiteNameB5cxx11Ev
FN:525,525,_ZNK7testing8internal26ParameterizedTestSuiteInfoI21ErrorHandlingHelpTestE18GetTestSuiteTypeIdEv
FN:525,525,_ZNK7testing8internal26ParameterizedTestSuiteInfoI26ErrorHandlingTestArgumentsE18GetTestSuiteTypeIdEv
FN:532,537,_ZN7testing8internal26ParameterizedTestSuiteInfoI21ErrorHandlingHelpTestE14AddTestPatternEPKcS5_PNS0_19TestMetaFactoryBaseI9ErrorCaseEENS0_12CodeLocationE
FN:532,537,_ZN7testing8internal26ParameterizedTestSuiteInfoI26ErrorHandlingTestArgumentsE14AddTestPatternEPKcS5_PNS0_19TestMetaFactoryBaseI13ArgumentsCaseEENS0_12CodeLocationE
FN:540,547,_ZN7testing8internal26ParameterizedTestSuiteInfoI21ErrorHandlingHelpTestE25AddTestSuiteInstantiationERKNSt7__cxx1112basic_stringIcSt11char_traitsIcESaIcEEEPFNS0_14ParamGeneratorI9ErrorCaseEEvEPFS9_RKNS_13TestParamInfoISD_EEEPKci
FN:540,547,_ZN7testing8internal26ParameterizedTestSuiteInfoI26ErrorHandlingTestArgumentsE25AddTestSuiteInstantiationERKNSt7__cxx1112basic_stringIcSt11char_traitsIcESaIcEEEPFNS0_14ParamGeneratorI13ArgumentsCaseEEvEPFS9_RKNS_13TestParamInfoISD_EEEPKci
FN:553,616,_ZN7testing8internal26ParameterizedTestSuiteInfoI21ErrorHandlingHelpTestE13RegisterTestsEv
FN:553,616,_ZN7testing8internal26ParameterizedTestSuiteInfoI26ErrorHandlingTestArgumentsE13RegisterTestsEv
FN:622,628,_ZN7testing8internal26ParameterizedTestSuiteInfoI21ErrorHandlingHelpTestE8TestInfoC2EPKcS6_PNS0_19TestMetaFactoryBaseI9ErrorCaseEENS0_12CodeLocationE
FN:622,628,_ZN7testing8internal26ParameterizedTestSuiteInfoI26ErrorHandlingTestArgumentsE8TestInfoC2EPKcS6_PNS0_19TestMetaFactoryBaseI13ArgumentsCaseEENS0_12CodeLocationE
FN:63,64,_ZN7testing13TestParamInfoI13ArgumentsCaseEC2ERKS1_m
FN:63,64,_ZN7testing13TestParamInfoI9ErrorCaseEC2ERKS1_m
FN:640,648,_ZN7testing8internal26ParameterizedTestSuiteInfoI21ErrorHandlingHelpTestE17InstantiationInfoC2ERKNSt7__cxx1112basic_stringIcSt11char_traitsIcESaIcEEEPFNS0_14ParamGeneratorI9ErrorCaseEEvEPFSA_RKNS_13TestParamInfoISE_EEEPKci
FN:640,648,_ZN7testing8internal26ParameterizedTestSuiteInfoI26ErrorHandlingTestArgumentsE17InstantiationInfoC2ERKNSt7__cxx1112basic_stringIcSt11char_traitsIcESaIcEEEPFNS0_14ParamGeneratorI13ArgumentsCaseEEvEPFSA_RKNS_13TestParamInfoISE_EEEPKci
FN:658,668,_ZN7testing8internal26ParameterizedTestSuiteInfoI21ErrorHandlingHelpTestE16IsValidParamNameERKNSt7__cxx1112basic_stringIcSt11char_traitsIcESaIcEEE
FN:658,668,_ZN7testing8internal26ParameterizedTestSuiteInfoI26ErrorHandlingTestArgumentsE16IsValidParamNameERKNSt7__cxx1112basic_stringIcSt11char_traitsIcESaIcEEE
FN:704,731,_ZN7testing8internal30ParameterizedTestSuiteRegistry25GetTestSuitePatternHolderI21ErrorHandlingHelpTestEEPNS0_26ParameterizedTestSuiteInfoIT_EEPKcNS0_12CodeLocationE
FN:704,731,_ZN7testing8internal30ParameterizedTestSuiteRegistry25GetTestSuitePatternHolderI26ErrorHandlingTestArgumentsEEPNS0_26ParameterizedTestSuiteInfoIT_EEPKcNS0_12CodeLocationE
FN:802,802,_ZN7testing8internal10ValueArrayIJ13ArgumentsCaseS2_S2_S2_S2_S2_S2_S2_S2_S2_EEC2ES2_S2_S2_S2_S2_S2_S2_S2_S2_S2_
FN:802,802,_ZN7testing8internal10ValueArrayIJ9ErrorCaseS2_S2_S2_S2_S2_S2_EEC2ES2_S2_S2_S2_S2_S2_S2_
FN:805,807,_ZNK7testing8internal10ValueArrayIJ13ArgumentsCaseS2_S2_S2_S2_S2_S2_S2_S2_S2_EEcvNS0_14ParamGeneratorIT_EEIS2_EEv
FN:805,807,_ZNK7testing8internal10ValueArrayIJ9ErrorCaseS2_S2_S2_S2_S2_S2_EEcvNS0_14ParamGeneratorIT_EEIS2_EEv
FN:811,813,_ZNK7testing8internal10ValueArrayIJ13ArgumentsCaseS2_S2_S2_S2_S2_S2_S2_S2_S2_EE10MakeVectorIS2_JLm0ELm1ELm2ELm3ELm4ELm5ELm6ELm7ELm8ELm9EEEESt6vectorIT_SaIS6_EENS0_13IndexSequenceIJXspT0_EEEE
FN:811,813,_ZNK7testing8internal10ValueArrayIJ9ErrorCaseS2_S2_S2_S2_S2_S2_EE10MakeVectorIS2_JLm0ELm1ELm2ELm3ELm4ELm5ELm6EEEESt6vectorIT_SaIS6_EENS0_13IndexSequenceIJXspT0_EEEE
FNDA:0,_ZN7testing8internal22ParamIteratorInterfaceI13ArgumentsCaseED0Ev
FNDA:24,_ZN7testing8internal22ParamIteratorInterfaceI13ArgumentsCaseED2Ev
FNDA:0,_ZN7testing8internal22ParamIteratorInterfaceI9ErrorCaseED0Ev
FNDA:18,_ZN7testing8internal22ParamIteratorInterfaceI9ErrorCaseED2Ev
FNDA:60,_ZNK7testing8internal13ParamIteratorI13ArgumentsCaseEdeEv
FNDA:42,_ZNK7testing8internal13ParamIteratorI9ErrorCaseEdeEv
FNDA:20,_ZN7testing8internal13ParamIteratorI13ArgumentsCaseEppEv
FNDA:14,_ZN7testing8internal13ParamIteratorI9ErrorCaseEppEv
FNDA:22,_ZNK7testing8internal13ParamIteratorI13ArgumentsCaseEeqERKS3_
FNDA:16,_ZNK7testing8internal13ParamIteratorI9ErrorCaseEeqERKS3_
FNDA:22,_ZNK7testing8internal13ParamIteratorI13ArgumentsCaseEneERKS3_
FNDA:16,_ZNK7testing8internal13ParamIteratorI9ErrorCaseEneERKS3_
FNDA:24,_ZN7testing8internal13ParamIteratorI13ArgumentsCaseEC2EPNS0_22ParamIteratorInterfaceIS2_EE
FNDA:18,_ZN7testing8internal13ParamIteratorI9ErrorCaseEC2EPNS0_22ParamIteratorInterfaceIS2_EE
FNDA:0,_ZN7testing8internal23ParamGeneratorInterfaceI13ArgumentsCaseED0Ev
FNDA:2,_ZN7testing8internal23ParamGeneratorInterfaceI13ArgumentsCaseED2Ev
FNDA:0,_ZN7testing8internal23ParamGeneratorInterfaceI9ErrorCaseED0Ev
FNDA:2,_ZN7testing8internal23ParamGeneratorInterfaceI9ErrorCaseED2Ev
FNDA:2,_ZN7testing8internal14ParamGeneratorI13ArgumentsCaseEC2EPNS0_23ParamGeneratorInterfaceIS2_EE
FNDA:2,_ZN7testing8internal14ParamGeneratorI9ErrorCaseEC2EPNS0_23ParamGeneratorInterfaceIS2_EE
FNDA:2,_ZNK7testing8internal14ParamGeneratorI13ArgumentsCaseE5beginEv
FNDA:2,_ZNK7testing8internal14ParamGeneratorI9ErrorCaseE5beginEv
FNDA:22,_ZNK7testing8internal14ParamGeneratorI13ArgumentsCaseE3endEv
FNDA:16,_ZNK7testing8internal14ParamGeneratorI9ErrorCaseE3endEv
FNDA:2,_ZN7testing8internal30ValuesInIteratorRangeGeneratorI13ArgumentsCaseEC2IN9__gnu_cxx17__normal_iteratorIPKS2_St6vectorIS2_SaIS2_EEEEEET_SD_
FNDA:2,_ZN7testing8internal30ValuesInIteratorRangeGeneratorI9ErrorCaseEC2IN9__gnu_cxx17__normal_iteratorIPKS2_St6vectorIS2_SaIS2_EEEEEET_SD_
FNDA:2,_ZN7testing8internal30ValuesInIteratorRangeGeneratorI13ArgumentsCaseED0Ev
FNDA:2,_ZN7testing8internal30ValuesInIteratorRangeGeneratorI13ArgumentsCaseED2Ev
FNDA:2,_ZN7testing8internal30ValuesInIteratorRangeGeneratorI9ErrorCaseED0Ev
FNDA:2,_ZN7testing8internal30ValuesInIteratorRangeGeneratorI9ErrorCaseED2Ev
FNDA:2,_ZNK7testing8internal30ValuesInIteratorRangeGeneratorI13ArgumentsCaseE5BeginEv
FNDA:2,_ZNK7testing8internal30ValuesInIteratorRangeGeneratorI9ErrorCaseE5BeginEv
FNDA:22,_ZNK7testing8internal30ValuesInIteratorRangeGeneratorI13ArgumentsCaseE3EndEv
FNDA:16,_ZNK7testing8internal30ValuesInIteratorRangeGeneratorI9ErrorCaseE3EndEv
FNDA:24,_ZN7testing8internal30ValuesInIteratorRangeGeneratorI13ArgumentsCaseE8IteratorC2EPKNS0_23ParamGeneratorInterfaceIS2_EEN9__gnu_cxx17__normal_iteratorIPKS2_St6vectorIS2_SaIS2_EEEE
FNDA:18,_ZN7testing8internal30ValuesInIteratorRangeGeneratorI9ErrorCaseE8IteratorC2EPKNS0_23ParamGeneratorInterfaceIS2_EEN9__gnu_cxx17__normal_iteratorIPKS2_St6vectorIS2_SaIS2_EEEE
FNDA:24,_ZN7testing8internal30ValuesInIteratorRangeGeneratorI13ArgumentsCaseE8IteratorD0Ev
FNDA:24,_ZN7testing8internal30ValuesInIteratorRangeGeneratorI13ArgumentsCaseE8IteratorD2Ev
FNDA:18,_ZN7testing8internal30ValuesInIteratorRangeGeneratorI9ErrorCaseE8IteratorD0Ev
FNDA:18,_ZN7testing8internal30ValuesInIteratorRangeGeneratorI9ErrorCaseE8IteratorD2Ev
FNDA:44,_ZNK7testing8internal30ValuesInIteratorRangeGeneratorI13ArgumentsCaseE8Iterator13BaseGeneratorEv
FNDA:32,_ZNK7testing8internal30ValuesInIteratorRangeGeneratorI9ErrorCaseE8Iterator13BaseGeneratorEv
FNDA:20,_ZN7testing8internal30ValuesInIteratorRangeGeneratorI13ArgumentsCaseE8Iterator7AdvanceEv
FNDA:14,_ZN7testing8internal30ValuesInIteratorRangeGeneratorI9ErrorCaseE8Iterator7AdvanceEv
FNDA:0,_ZNK7testing8internal30ValuesInIteratorRangeGeneratorI13ArgumentsCaseE8Iterator5CloneEv
FNDA:0,_ZNK7testing8internal30ValuesInIteratorRangeGeneratorI9ErrorCaseE8Iterator5CloneEv
FNDA:60,_ZNK7testing8internal30ValuesInIteratorRangeGeneratorI13ArgumentsCaseE8Iterator7CurrentEv
FNDA:42,_ZNK7testing8internal30ValuesInIteratorRangeGeneratorI9ErrorCaseE8Iterator7CurrentEv
FNDA:22,_ZNK7testing8internal30ValuesInIteratorRangeGeneratorI13ArgumentsCaseE8Iterator6EqualsERKNS0_22ParamIteratorInterfaceIS2_EE
FNDA:16,_ZNK7testing8internal30ValuesInIteratorRangeGeneratorI9ErrorCaseE8Iterator6EqualsERKNS0_22ParamIteratorInterfaceIS2_EE
FNDA:0,_ZN7testing8internal30ValuesInIteratorRangeGeneratorI13ArgumentsCaseE8IteratorC2ERKS4_
FNDA:0,_ZN7testing8internal30ValuesInIteratorRangeGeneratorI9ErrorCaseE8IteratorC2ERKS4_
FNDA:20,_ZN7testing8internal16DefaultParamNameI13ArgumentsCaseEENSt7__cxx1112basic_stringIcSt11char_traitsIcESaIcEEERKNS_13TestParamInfoIT_EE
FNDA:14,_ZN7testing8internal16DefaultParamNameI9ErrorCaseEENSt7__cxx1112basic_stringIcSt11char_traitsIcESaIcEEERKNS_13TestParamInfoIT_EE
FNDA:0,_ZN7testing8internal12TestNotEmptyIFNSt7__cxx1112basic_stringIcSt11char_traitsIcESaIcEEERKNS_13TestParamInfoI13ArgumentsCaseEEEEEvRKT_
FNDA:0,_ZN7testing8internal12TestNotEmptyIFNSt7__cxx1112basic_stringIcSt11char_traitsIcESaIcEEERKNS_13TestParamInfoI9ErrorCaseEEEEEvRKT_
FNDA:20,_ZN7testing8internal24ParameterizedTestFactoryI47ErrorHandlingTestArguments_HandleArguments_TestEC2E13ArgumentsCase
FNDA:14,_ZN7testing8internal24ParameterizedTestFactoryI49ErrorHandlingHelpTest_HandleCorrectHelpFlags_TestEC2E9ErrorCase
FNDA:10,_ZN7testing8internal24ParameterizedTestFactoryI47ErrorHandlingTestArguments_HandleArguments_TestE10CreateTestEv
FNDA:7,_ZN7testing8internal24ParameterizedTestFactoryI49ErrorHandlingHelpTest_HandleCorrectHelpFlags_TestE10CreateTestEv
FNDA:0,_ZN7testing8internal19TestMetaFactoryBaseI13ArgumentsCaseED0Ev
FNDA:2,_ZN7testing8internal19TestMetaFactoryBaseI13ArgumentsCaseED2Ev
FNDA:0,_ZN7testing8internal19TestMetaFactoryBaseI9ErrorCaseED0Ev
FNDA:2,_ZN7testing8internal19TestMetaFactoryBaseI9ErrorCaseED2Ev
FNDA:2,_ZN7testing8internal15TestMetaFactoryI47ErrorHandlingTestArguments_HandleArguments_TestEC2Ev
FNDA:2,_ZN7testing8internal15TestMetaFactoryI49ErrorHandlingHelpTest_HandleCorrectHelpFlags_TestEC2Ev
FNDA:20,_ZN7testing8internal15TestMetaFactoryI47ErrorHandlingTestArguments_HandleArguments_TestE17CreateTestFactoryE13ArgumentsCase
FNDA:14,_ZN7testing8internal15TestMetaFactoryI49ErrorHandlingHelpTest_HandleCorrectHelpFlags_TestE17CreateTestFactoryE9ErrorCase
FNDA:0,_ZN7testing8internal30ParameterizedTestSuiteInfoBaseD0Ev
FNDA:4,_ZN7testing8internal30ParameterizedTestSuiteInfoBaseD2Ev
FNDA:4,_ZN7testing8internal30ParameterizedTestSuiteInfoBaseC2Ev
FNDA:2,_ZN7testing8internal26ParameterizedTestSuiteInfoI21ErrorHandlingHelpTestEC2EPKcNS0_12CodeLocationE
FNDA:2,_ZN7testing8internal26ParameterizedTestSuiteInfoI26ErrorHandlingTestArgumentsEC2EPKcNS0_12CodeLocationE
FNDA:6,_ZNK7testing8internal26ParameterizedTestSuiteInfoI21ErrorHandlingHelpTestE16GetTestSuiteNameB5cxx11Ev
FNDA:2,_ZNK7testing8internal26ParameterizedTestSuiteInfoI26ErrorHandlingTestArgumentsE16GetTestSuiteNameB5cxx11Ev
FNDA:16,_ZNK7testing8internal26ParameterizedTestSuiteInfoI21ErrorHandlingHelpTestE18GetTestSuiteTypeIdEv
FNDA:22,_ZNK7testing8internal26ParameterizedTestSuiteInfoI26ErrorHandlingTestArgumentsE18GetTestSuiteTypeIdEv
FNDA:2,_ZN7testing8internal26ParameterizedTestSuiteInfoI21ErrorHandlingHelpTestE14AddTestPatternEPKcS5_PNS0_19TestMetaFactoryBaseI9ErrorCaseEENS0_12CodeLocationE
FNDA:2,_ZN7testing8internal26ParameterizedTestSuiteInfoI26ErrorHandlingTestArgumentsE14AddTestPatternEPKcS5_PNS0_19TestMetaFactoryBaseI13ArgumentsCaseEENS0_12CodeLocationE
FNDA:2,_ZN7testing8internal26ParameterizedTestSuiteInfoI21ErrorHandlingHelpTestE25AddTestSuiteInstantiationERKNSt7__cxx1112basic_stringIcSt11char_traitsIcESaIcEEEPFNS0_14ParamGeneratorI9ErrorCaseEEvEPFS9_RKNS_13TestParamInfoISD_EEEPKci
FNDA:2,_ZN7testing8internal26ParameterizedTestSuiteInfoI26ErrorHandlingTestArgumentsE25AddTestSuiteInstantiationERKNSt7__cxx1112basic_stringIcSt11char_traitsIcESaIcEEEPFNS0_14ParamGeneratorI13ArgumentsCaseEEvEPFS9_RKNS_13TestParamInfoISD_EEEPKci
FNDA:2,_ZN7testing8internal26ParameterizedTestSuiteInfoI21ErrorHandlingHelpTestE13RegisterTestsEv
FNDA:2,_ZN7testing8internal26ParameterizedTestSuiteInfoI26ErrorHandlingTestArgumentsE13RegisterTestsEv
FNDA:2,_ZN7testing8internal26ParameterizedTestSuiteInfoI21ErrorHandlingHelpTestE8TestInfoC2EPKcS6_PNS0_19TestMetaFactoryBaseI9ErrorCaseEENS0_12CodeLocationE
FNDA:2,_ZN7testing8internal26ParameterizedTestSuiteInfoI26ErrorHandlingTestArgumentsE8TestInfoC2EPKcS6_PNS0_19TestMetaFactoryBaseI13ArgumentsCaseEENS0_12CodeLocationE
FNDA:20,_ZN7testing13TestParamInfoI13ArgumentsCaseEC2ERKS1_m
FNDA:14,_ZN7testing13TestParamInfoI9ErrorCaseEC2ERKS1_m
FNDA:2,_ZN7testing8internal26ParameterizedTestSuiteInfoI21ErrorHandlingHelpTestE17InstantiationInfoC2ERKNSt7__cxx1112basic_stringIcSt11char_traitsIcESaIcEEEPFNS0_14ParamGeneratorI9ErrorCaseEEvEPFSA_RKNS_13TestParamInfoISE_EEEPKci
FNDA:2,_ZN7testing8internal26ParameterizedTestSuiteInfoI26ErrorHandlingTestArgumentsE17InstantiationInfoC2ERKNSt7__cxx1112basic_stringIcSt11char_traitsIcESaIcEEEPFNS0_14ParamGeneratorI13ArgumentsCaseEEvEPFSA_RKNS_13TestParamInfoISE_EEEPKci
FNDA:14,_ZN7testing8internal26ParameterizedTestSuiteInfoI21ErrorHandlingHelpTestE16IsValidParamNameERKNSt7__cxx1112basic_stringIcSt11char_traitsIcESaIcEEE
FNDA:20,_ZN7testing8internal26ParameterizedTestSuiteInfoI26ErrorHandlingTestArgumentsE16IsValidParamNameERKNSt7__cxx1112basic_stringIcSt11char_traitsIcESaIcEEE
FNDA:4,_ZN7testing8internal30ParameterizedTestSuiteRegistry25GetTestSuitePatternHolderI21ErrorHandlingHelpTestEEPNS0_26ParameterizedTestSuiteInfoIT_EEPKcNS0_12CodeLocationE
FNDA:4,_ZN7testing8internal30ParameterizedTestSuiteRegistry25GetTestSuitePatternHolderI26ErrorHandlingTestArgumentsEEPNS0_26ParameterizedTestSuiteInfoIT_EEPKcNS0_12CodeLocationE
FNDA:2,_ZN7testing8internal10ValueArrayIJ13ArgumentsCaseS2_S2_S2_S2_S2_S2_S2_S2_S2_EEC2ES2_S2_S2_S2_S2_S2_S2_S2_S2_S2_
FNDA:2,_ZN7testing8internal10ValueArrayIJ9ErrorCaseS2_S2_S2_S2_S2_S2_EEC2ES2_S2_S2_S2_S2_S2_S2_
FNDA:2,_ZNK7testing8internal10ValueArrayIJ13ArgumentsCaseS2_S2_S2_S2_S2_S2_S2_S2_S2_EEcvNS0_14ParamGeneratorIT_EEIS2_EEv
FNDA:2,_ZNK7testing8internal10ValueArrayIJ9ErrorCaseS2_S2_S2_S2_S2_S2_EEcvNS0_14ParamGeneratorIT_EEIS2_EEv
FNDA:2,_ZNK7testing8internal10ValueArrayIJ13ArgumentsCaseS2_S2_S2_S2_S2_S2_S2_S2_S2_EE10MakeVectorIS2_JLm0ELm1ELm2ELm3ELm4ELm5ELm6ELm7ELm8ELm9EEEESt6vectorIT_SaIS6_EENS0_13IndexSequenceIJXspT0_EEEE
FNDA:2,_ZNK7testing8internal10ValueArrayIJ9ErrorCaseS2_S2_S2_S2_S2_S2_EE10MakeVectorIS2_JLm0ELm1ELm2ELm3ELm4ELm5ELm6EEEESt6vectorIT_SaIS6_EENS0_13IndexSequenceIJXspT0_EEEE
FNF:99
FNH:86
DA:63,34
DA:64,34
DA:100,42
DA:141,102
DA:144,34
DA:145,34
DA:146,34
DA:154,38
DA:155,38
DA:157,38
DA:158,38
DA:163,42
DA:174,4
DA:191,4
DA:199,4
DA:200,38
DA:300,4
DA:301,12
DA:302,8
DA:304,4
DA:305,4
DA:307,38
DA:308,38
DA:316,42
DA:318,42
DA:319,84
DA:321,76
DA:322,76
DA:324,34
DA:325,34
DA:326,34
DA:327,34
DA:328,0
DA:329,0
DA:338,102
DA:339,102
DA:340,102
DA:342,38
DA:345,38
DA:347,0
DA:348,38
DA:349,38
DA:353,0
DA:357,0
DA:358,0
DA:381,34
DA:382,34
DA:383,34
DA:384,68
DA:385,34
DA:392,0
DA:402,34
DA:403,34
DA:404,17
DA:405,17
DA:406,17
DA:423,4
DA:442,4
DA:444,34
DA:445,34
DA:465,4
DA:478,4
DA:516,4
DA:518,12
DA:521,8
DA:522,8
DA:525,38
DA:532,4
DA:535,4
DA:537,4
DA:540,4
DA:544,4
DA:545,8
DA:546,4
DA:553,4
DA:554,4
DA:556,8
DA:557,8
DA:558,4
DA:559,8
DA:560,4
DA:561,8
DA:562,4
DA:563,4
DA:564,4
DA:565,4
DA:566,4
DA:568,4
DA:569,4
DA:570,4
DA:571,4
DA:573,4
DA:574,4
DA:575,76
DA:577,72
DA:578,34
DA:580,34
DA:582,34
DA:583,34
DA:585,34
DA:587,0
DA:589,34
DA:591,0
DA:593,34
DA:595,34
DA:596,34
DA:598,34
DA:599,68
DA:602,34
DA:603,34
DA:606,34
DA:611,4
DA:613,0
DA:614,0
DA:616,4
DA:622,4
DA:625,8
DA:626,8
DA:627,4
DA:628,4
DA:640,4
DA:644,4
DA:645,4
DA:646,4
DA:647,4
DA:648,4
DA:658,34
DA:660,34
DA:663,68
DA:664,34
DA:667,34
DA:704,8
DA:706,8
DA:707,12
DA:708,8
DA:709,4
DA:713,0
DA:714,0
DA:720,4
DA:722,4
DA:725,8
DA:726,4
DA:728,4
DA:730,8
DA:802,4
DA:805,4
DA:806,4
DA:811,4
DA:812,12
LF:149
LH:136
end_of_record
TN:
SF:/usr/include/gtest/internal/gtest-port.h
FN:1042,1042,_ZN7testing8internal8GTestLog9GetStreamEv
FN:1150,1157,_ZN7testing8internal27CheckedDowncastToActualTypeIKNS0_30ValuesInIteratorRangeGeneratorI13ArgumentsCaseE8IteratorEKNS0_22ParamIteratorInterfaceIS3_EEEEPT_PT0_
FN:1150,1157,_ZN7testing8internal27CheckedDowncastToActualTypeIKNS0_30ValuesInIteratorRangeGeneratorI9ErrorCaseE8IteratorEKNS0_22ParamIteratorInterfaceIS3_EEEEPT_PT0_
FN:1150,1157,_ZN7testing8internal27CheckedDowncastToActualTypeINS0_26ParameterizedTestSuiteInfoI21ErrorHandlingHelpTestEENS0_30ParameterizedTestSuiteInfoBaseEEEPT_PT0_
FN:1150,1157,_ZN7testing8internal27CheckedDowncastToActualTypeINS0_26ParameterizedTestSuiteInfoI26ErrorHandlingTestArgumentsEENS0_30ParameterizedTestSuiteInfoBaseEEEPT_PT0_
FN:1932,1934,_ZN7testing8internal7IsAlNumEc
FN:2147,2147,_ZN7testing8internal5posix5AbortEv
FNDA:0,_ZN7testing8internal8GTestLog9GetStreamEv
FNDA:22,_ZN7testing8internal27CheckedDowncastToActualTypeIKNS0_30ValuesInIteratorRangeGeneratorI13ArgumentsCaseE8IteratorEKNS0_22ParamIteratorInterfaceIS3_EEEEPT_PT0_
FNDA:16,_ZN7testing8internal27CheckedDowncastToActualTypeIKNS0_30ValuesInIteratorRangeGeneratorI9ErrorCaseE8IteratorEKNS0_22ParamIteratorInterfaceIS3_EEEEPT_PT0_
FNDA:2,_ZN7testing8internal27CheckedDowncastToActualTypeINS0_26ParameterizedTestSuiteInfoI21ErrorHandlingHelpTestEENS0_30ParameterizedTestSuiteInfoBaseEEEPT_PT0_
FNDA:2,_ZN7testing8internal27CheckedDowncastToActualTypeINS0_26ParameterizedTestSuiteInfoI26ErrorHandlingTestArgumentsEENS0_30ParameterizedTestSuiteInfoBaseEEEPT_PT0_
FNDA:34,_ZN7testing8internal7IsAlNumEc
FNDA:0,_ZN7testing8internal5posix5AbortEv
FNF:7
FNH:5
DA:1042,0
DA:1150,42
DA:1154,42
DA:1156,42
DA:1932,34
DA:1933,34
DA:2147,0
LF:7
LH:5
end_of_record
TN:
SF:/usr/include/x86_64-linux-gnu/c++/13/bits/c++config.h
FN:540,551,_ZSt23__is_constant_evaluatedv
FNDA:297,_ZSt23__is_constant_evaluatedv
FNF:1
FNH:1
DA:540,297
DA:547,297
LF:2
LH:2
end_of_record
